ARM GAS  /tmp/cciFFPmJ.s 			page 1


   1              		.cpu cortex-m3
   2              		.eabi_attribute 20, 1
   3              		.eabi_attribute 21, 1
   4              		.eabi_attribute 23, 3
   5              		.eabi_attribute 24, 1
   6              		.eabi_attribute 25, 1
   7              		.eabi_attribute 26, 1
   8              		.eabi_attribute 30, 1
   9              		.eabi_attribute 34, 1
  10              		.eabi_attribute 18, 4
  11              		.file	"ff.c"
  12              		.text
  13              	.Ltext0:
  14              		.cfi_sections	.debug_frame
  15              		.section	.text.mem_cpy,"ax",%progbits
  16              		.align	1
  17              		.arch armv7-m
  18              		.syntax unified
  19              		.thumb
  20              		.thumb_func
  21              		.fpu softvfp
  23              	mem_cpy:
  24              	.LVL0:
  25              	.LFB65:
  26              		.file 1 "Middlewares/Third_Party/FatFs/src/ff.c"
   1:Middlewares/Third_Party/FatFs/src/ff.c **** /*----------------------------------------------------------------------------/
   2:Middlewares/Third_Party/FatFs/src/ff.c **** /  FatFs - FAT file system module  R0.11                 (C)ChaN, 2015
   3:Middlewares/Third_Party/FatFs/src/ff.c **** /-----------------------------------------------------------------------------/
   4:Middlewares/Third_Party/FatFs/src/ff.c **** / FatFs module is a free software that opened under license policy of
   5:Middlewares/Third_Party/FatFs/src/ff.c **** / following conditions.
   6:Middlewares/Third_Party/FatFs/src/ff.c **** /
   7:Middlewares/Third_Party/FatFs/src/ff.c **** / Copyright (C) 2015, ChaN, all right reserved.
   8:Middlewares/Third_Party/FatFs/src/ff.c **** /
   9:Middlewares/Third_Party/FatFs/src/ff.c **** / 1. Redistributions of source code must retain the above copyright notice,
  10:Middlewares/Third_Party/FatFs/src/ff.c **** /    this condition and the following disclaimer.
  11:Middlewares/Third_Party/FatFs/src/ff.c **** /
  12:Middlewares/Third_Party/FatFs/src/ff.c **** / This software is provided by the copyright holder and contributors "AS IS"
  13:Middlewares/Third_Party/FatFs/src/ff.c **** / and any warranties related to this software are DISCLAIMED.
  14:Middlewares/Third_Party/FatFs/src/ff.c **** / The copyright owner or contributors be NOT LIABLE for any damages caused
  15:Middlewares/Third_Party/FatFs/src/ff.c **** / by use of this software.
  16:Middlewares/Third_Party/FatFs/src/ff.c **** /-----------------------------------------------------------------------------/
  17:Middlewares/Third_Party/FatFs/src/ff.c **** / Feb 26,'06 R0.00  Prototype.
  18:Middlewares/Third_Party/FatFs/src/ff.c **** /
  19:Middlewares/Third_Party/FatFs/src/ff.c **** / Apr 29,'06 R0.01  First stable version.
  20:Middlewares/Third_Party/FatFs/src/ff.c **** /
  21:Middlewares/Third_Party/FatFs/src/ff.c **** / Jun 01,'06 R0.02  Added FAT12 support.
  22:Middlewares/Third_Party/FatFs/src/ff.c **** /                   Removed unbuffered mode.
  23:Middlewares/Third_Party/FatFs/src/ff.c **** /                   Fixed a problem on small (<32M) partition.
  24:Middlewares/Third_Party/FatFs/src/ff.c **** / Jun 10,'06 R0.02a Added a configuration option (_FS_MINIMUM).
  25:Middlewares/Third_Party/FatFs/src/ff.c **** /
  26:Middlewares/Third_Party/FatFs/src/ff.c **** / Sep 22,'06 R0.03  Added f_rename().
  27:Middlewares/Third_Party/FatFs/src/ff.c **** /                   Changed option _FS_MINIMUM to _FS_MINIMIZE.
  28:Middlewares/Third_Party/FatFs/src/ff.c **** / Dec 11,'06 R0.03a Improved cluster scan algorithm to write files fast.
  29:Middlewares/Third_Party/FatFs/src/ff.c **** /                   Fixed f_mkdir() creates incorrect directory on FAT32.
  30:Middlewares/Third_Party/FatFs/src/ff.c **** /
  31:Middlewares/Third_Party/FatFs/src/ff.c **** / Feb 04,'07 R0.04  Supported multiple drive system.
  32:Middlewares/Third_Party/FatFs/src/ff.c **** /                   Changed some interfaces for multiple drive system.
ARM GAS  /tmp/cciFFPmJ.s 			page 2


  33:Middlewares/Third_Party/FatFs/src/ff.c **** /                   Changed f_mountdrv() to f_mount().
  34:Middlewares/Third_Party/FatFs/src/ff.c **** /                   Added f_mkfs().
  35:Middlewares/Third_Party/FatFs/src/ff.c **** / Apr 01,'07 R0.04a Supported multiple partitions on a physical drive.
  36:Middlewares/Third_Party/FatFs/src/ff.c **** /                   Added a capability of extending file size to f_lseek().
  37:Middlewares/Third_Party/FatFs/src/ff.c **** /                   Added minimization level 3.
  38:Middlewares/Third_Party/FatFs/src/ff.c **** /                   Fixed an endian sensitive code in f_mkfs().
  39:Middlewares/Third_Party/FatFs/src/ff.c **** / May 05,'07 R0.04b Added a configuration option _USE_NTFLAG.
  40:Middlewares/Third_Party/FatFs/src/ff.c **** /                   Added FSINFO support.
  41:Middlewares/Third_Party/FatFs/src/ff.c **** /                   Fixed DBCS name can result FR_INVALID_NAME.
  42:Middlewares/Third_Party/FatFs/src/ff.c **** /                   Fixed short seek (<= csize) collapses the file object.
  43:Middlewares/Third_Party/FatFs/src/ff.c **** /
  44:Middlewares/Third_Party/FatFs/src/ff.c **** / Aug 25,'07 R0.05  Changed arguments of f_read(), f_write() and f_mkfs().
  45:Middlewares/Third_Party/FatFs/src/ff.c **** /                   Fixed f_mkfs() on FAT32 creates incorrect FSINFO.
  46:Middlewares/Third_Party/FatFs/src/ff.c **** /                   Fixed f_mkdir() on FAT32 creates incorrect directory.
  47:Middlewares/Third_Party/FatFs/src/ff.c **** / Feb 03,'08 R0.05a Added f_truncate() and f_utime().
  48:Middlewares/Third_Party/FatFs/src/ff.c **** /                   Fixed off by one error at FAT sub-type determination.
  49:Middlewares/Third_Party/FatFs/src/ff.c **** /                   Fixed btr in f_read() can be mistruncated.
  50:Middlewares/Third_Party/FatFs/src/ff.c **** /                   Fixed cached sector is not flushed when create and close without write.
  51:Middlewares/Third_Party/FatFs/src/ff.c **** /
  52:Middlewares/Third_Party/FatFs/src/ff.c **** / Apr 01,'08 R0.06  Added fputc(), fputs(), fprintf() and fgets().
  53:Middlewares/Third_Party/FatFs/src/ff.c **** /                   Improved performance of f_lseek() on moving to the same or following cluster.
  54:Middlewares/Third_Party/FatFs/src/ff.c **** /
  55:Middlewares/Third_Party/FatFs/src/ff.c **** / Apr 01,'09 R0.07  Merged Tiny-FatFs as a configuration option. (_FS_TINY)
  56:Middlewares/Third_Party/FatFs/src/ff.c **** /                   Added long file name feature.
  57:Middlewares/Third_Party/FatFs/src/ff.c **** /                   Added multiple code page feature.
  58:Middlewares/Third_Party/FatFs/src/ff.c **** /                   Added re-entrancy for multitask operation.
  59:Middlewares/Third_Party/FatFs/src/ff.c **** /                   Added auto cluster size selection to f_mkfs().
  60:Middlewares/Third_Party/FatFs/src/ff.c **** /                   Added rewind option to f_readdir().
  61:Middlewares/Third_Party/FatFs/src/ff.c **** /                   Changed result code of critical errors.
  62:Middlewares/Third_Party/FatFs/src/ff.c **** /                   Renamed string functions to avoid name collision.
  63:Middlewares/Third_Party/FatFs/src/ff.c **** / Apr 14,'09 R0.07a Separated out OS dependent code on reentrant cfg.
  64:Middlewares/Third_Party/FatFs/src/ff.c **** /                   Added multiple sector size feature.
  65:Middlewares/Third_Party/FatFs/src/ff.c **** / Jun 21,'09 R0.07c Fixed f_unlink() can return FR_OK on error.
  66:Middlewares/Third_Party/FatFs/src/ff.c **** /                   Fixed wrong cache control in f_lseek().
  67:Middlewares/Third_Party/FatFs/src/ff.c **** /                   Added relative path feature.
  68:Middlewares/Third_Party/FatFs/src/ff.c **** /                   Added f_chdir() and f_chdrive().
  69:Middlewares/Third_Party/FatFs/src/ff.c **** /                   Added proper case conversion to extended character.
  70:Middlewares/Third_Party/FatFs/src/ff.c **** / Nov 03,'09 R0.07e Separated out configuration options from ff.h to ffconf.h.
  71:Middlewares/Third_Party/FatFs/src/ff.c **** /                   Fixed f_unlink() fails to remove a sub-directory on _FS_RPATH.
  72:Middlewares/Third_Party/FatFs/src/ff.c **** /                   Fixed name matching error on the 13 character boundary.
  73:Middlewares/Third_Party/FatFs/src/ff.c **** /                   Added a configuration option, _LFN_UNICODE.
  74:Middlewares/Third_Party/FatFs/src/ff.c **** /                   Changed f_readdir() to return the SFN with always upper case on non-LFN cfg.
  75:Middlewares/Third_Party/FatFs/src/ff.c **** /
  76:Middlewares/Third_Party/FatFs/src/ff.c **** / May 15,'10 R0.08  Added a memory configuration option. (_USE_LFN = 3)
  77:Middlewares/Third_Party/FatFs/src/ff.c **** /                   Added file lock feature. (_FS_SHARE)
  78:Middlewares/Third_Party/FatFs/src/ff.c **** /                   Added fast seek feature. (_USE_FASTSEEK)
  79:Middlewares/Third_Party/FatFs/src/ff.c **** /                   Changed some types on the API, XCHAR->TCHAR.
  80:Middlewares/Third_Party/FatFs/src/ff.c **** /                   Changed .fname in the FILINFO structure on Unicode cfg.
  81:Middlewares/Third_Party/FatFs/src/ff.c **** /                   String functions support UTF-8 encoding files on Unicode cfg.
  82:Middlewares/Third_Party/FatFs/src/ff.c **** / Aug 16,'10 R0.08a Added f_getcwd().
  83:Middlewares/Third_Party/FatFs/src/ff.c **** /                   Added sector erase feature. (_USE_ERASE)
  84:Middlewares/Third_Party/FatFs/src/ff.c **** /                   Moved file lock semaphore table from fs object to the bss.
  85:Middlewares/Third_Party/FatFs/src/ff.c **** /                   Fixed a wrong directory entry is created on non-LFN cfg when the given name con
  86:Middlewares/Third_Party/FatFs/src/ff.c **** /                   Fixed f_mkfs() creates wrong FAT32 volume.
  87:Middlewares/Third_Party/FatFs/src/ff.c **** / Jan 15,'11 R0.08b Fast seek feature is also applied to f_read() and f_write().
  88:Middlewares/Third_Party/FatFs/src/ff.c **** /                   f_lseek() reports required table size on creating CLMP.
  89:Middlewares/Third_Party/FatFs/src/ff.c **** /                   Extended format syntax of f_printf().
ARM GAS  /tmp/cciFFPmJ.s 			page 3


  90:Middlewares/Third_Party/FatFs/src/ff.c **** /                   Ignores duplicated directory separators in given path name.
  91:Middlewares/Third_Party/FatFs/src/ff.c **** /
  92:Middlewares/Third_Party/FatFs/src/ff.c **** / Sep 06,'11 R0.09  f_mkfs() supports multiple partition to complete the multiple partition feature
  93:Middlewares/Third_Party/FatFs/src/ff.c **** /                   Added f_fdisk().
  94:Middlewares/Third_Party/FatFs/src/ff.c **** / Aug 27,'12 R0.09a Changed f_open() and f_opendir() reject null object pointer to avoid crash.
  95:Middlewares/Third_Party/FatFs/src/ff.c **** /                   Changed option name _FS_SHARE to _FS_LOCK.
  96:Middlewares/Third_Party/FatFs/src/ff.c **** /                   Fixed assertion failure due to OS/2 EA on FAT12/16 volume.
  97:Middlewares/Third_Party/FatFs/src/ff.c **** / Jan 24,'13 R0.09b Added f_setlabel() and f_getlabel().
  98:Middlewares/Third_Party/FatFs/src/ff.c **** /
  99:Middlewares/Third_Party/FatFs/src/ff.c **** / Oct 02,'13 R0.10  Added selection of character encoding on the file. (_STRF_ENCODE)
 100:Middlewares/Third_Party/FatFs/src/ff.c **** /                   Added f_closedir().
 101:Middlewares/Third_Party/FatFs/src/ff.c **** /                   Added forced full FAT scan for f_getfree(). (_FS_NOFSINFO)
 102:Middlewares/Third_Party/FatFs/src/ff.c **** /                   Added forced mount feature with changes of f_mount().
 103:Middlewares/Third_Party/FatFs/src/ff.c **** /                   Improved behavior of volume auto detection.
 104:Middlewares/Third_Party/FatFs/src/ff.c **** /                   Improved write throughput of f_puts() and f_printf().
 105:Middlewares/Third_Party/FatFs/src/ff.c **** /                   Changed argument of f_chdrive(), f_mkfs(), disk_read() and disk_write().
 106:Middlewares/Third_Party/FatFs/src/ff.c **** /                   Fixed f_write() can be truncated when the file size is close to 4GB.
 107:Middlewares/Third_Party/FatFs/src/ff.c **** /                   Fixed f_open(), f_mkdir() and f_setlabel() can return incorrect error code.
 108:Middlewares/Third_Party/FatFs/src/ff.c **** / Jan 15,'14 R0.10a Added arbitrary strings as drive number in the path name. (_STR_VOLUME_ID)
 109:Middlewares/Third_Party/FatFs/src/ff.c **** /                   Added a configuration option of minimum sector size. (_MIN_SS)
 110:Middlewares/Third_Party/FatFs/src/ff.c **** /                   2nd argument of f_rename() can have a drive number and it will be ignored.
 111:Middlewares/Third_Party/FatFs/src/ff.c **** /                   Fixed f_mount() with forced mount fails when drive number is >= 1.
 112:Middlewares/Third_Party/FatFs/src/ff.c **** /                   Fixed f_close() invalidates the file object without volume lock.
 113:Middlewares/Third_Party/FatFs/src/ff.c **** /                   Fixed f_closedir() returns but the volume lock is left acquired.
 114:Middlewares/Third_Party/FatFs/src/ff.c **** /                   Fixed creation of an entry with LFN fails on too many SFN collisions.
 115:Middlewares/Third_Party/FatFs/src/ff.c **** / May 19,'14 R0.10b Fixed a hard error in the disk I/O layer can collapse the directory entry.
 116:Middlewares/Third_Party/FatFs/src/ff.c **** /                   Fixed LFN entry is not deleted on delete/rename an object with lossy converted 
 117:Middlewares/Third_Party/FatFs/src/ff.c **** / Nov  9,'14 R0.10c Added a configuration option for the platforms without RTC. (_FS_NORTC)
 118:Middlewares/Third_Party/FatFs/src/ff.c **** /                   Fixed volume label created by Mac OS X cannot be retrieved with f_getlabel(). (
 119:Middlewares/Third_Party/FatFs/src/ff.c **** /                   Fixed a potential problem of FAT access that can appear on disk error.
 120:Middlewares/Third_Party/FatFs/src/ff.c **** /                   Fixed null pointer dereference on attempting to delete the root direcotry. (app
 121:Middlewares/Third_Party/FatFs/src/ff.c **** / Feb 02,'15 R0.11  Added f_findfirst() and f_findnext(). (_USE_FIND)
 122:Middlewares/Third_Party/FatFs/src/ff.c **** /                   Fixed f_unlink() does not remove cluster chain of the file. (appeared at R0.10c
 123:Middlewares/Third_Party/FatFs/src/ff.c **** /                   Fixed _FS_NORTC option does not work properly. (appeared at R0.10c)
 124:Middlewares/Third_Party/FatFs/src/ff.c **** /---------------------------------------------------------------------------*/
 125:Middlewares/Third_Party/FatFs/src/ff.c **** 
 126:Middlewares/Third_Party/FatFs/src/ff.c **** #include "ff.h"			/* Declarations of FatFs API */
 127:Middlewares/Third_Party/FatFs/src/ff.c **** #include "diskio.h"		/* Declarations of disk I/O functions */
 128:Middlewares/Third_Party/FatFs/src/ff.c **** 
 129:Middlewares/Third_Party/FatFs/src/ff.c **** 
 130:Middlewares/Third_Party/FatFs/src/ff.c **** /*--------------------------------------------------------------------------
 131:Middlewares/Third_Party/FatFs/src/ff.c **** 
 132:Middlewares/Third_Party/FatFs/src/ff.c ****    Module Private Definitions
 133:Middlewares/Third_Party/FatFs/src/ff.c **** 
 134:Middlewares/Third_Party/FatFs/src/ff.c **** ---------------------------------------------------------------------------*/
 135:Middlewares/Third_Party/FatFs/src/ff.c **** 
 136:Middlewares/Third_Party/FatFs/src/ff.c **** #if _FATFS != 32020	/* Revision ID */
 137:Middlewares/Third_Party/FatFs/src/ff.c **** #error Wrong include file (ff.h).
 138:Middlewares/Third_Party/FatFs/src/ff.c **** #endif
 139:Middlewares/Third_Party/FatFs/src/ff.c **** 
 140:Middlewares/Third_Party/FatFs/src/ff.c **** 
 141:Middlewares/Third_Party/FatFs/src/ff.c **** /* Reentrancy related */
 142:Middlewares/Third_Party/FatFs/src/ff.c **** #if _FS_REENTRANT
 143:Middlewares/Third_Party/FatFs/src/ff.c **** #if _USE_LFN == 1
 144:Middlewares/Third_Party/FatFs/src/ff.c **** #error Static LFN work area cannot be used at thread-safe configuration
 145:Middlewares/Third_Party/FatFs/src/ff.c **** #endif
 146:Middlewares/Third_Party/FatFs/src/ff.c **** #define	ENTER_FF(fs)		{ if (!lock_fs(fs)) return FR_TIMEOUT; }
ARM GAS  /tmp/cciFFPmJ.s 			page 4


 147:Middlewares/Third_Party/FatFs/src/ff.c **** #define	LEAVE_FF(fs, res)	{ unlock_fs(fs, res); return res; }
 148:Middlewares/Third_Party/FatFs/src/ff.c **** #else
 149:Middlewares/Third_Party/FatFs/src/ff.c **** #define	ENTER_FF(fs)
 150:Middlewares/Third_Party/FatFs/src/ff.c **** #define LEAVE_FF(fs, res)	return res
 151:Middlewares/Third_Party/FatFs/src/ff.c **** #endif
 152:Middlewares/Third_Party/FatFs/src/ff.c **** 
 153:Middlewares/Third_Party/FatFs/src/ff.c **** #define	ABORT(fs, res)		{ fp->err = (BYTE)(res); LEAVE_FF(fs, res); }
 154:Middlewares/Third_Party/FatFs/src/ff.c **** 
 155:Middlewares/Third_Party/FatFs/src/ff.c **** 
 156:Middlewares/Third_Party/FatFs/src/ff.c **** /* Definitions of sector size */
 157:Middlewares/Third_Party/FatFs/src/ff.c **** #if (_MAX_SS < _MIN_SS) || (_MAX_SS != 512 && _MAX_SS != 1024 && _MAX_SS != 2048 && _MAX_SS != 4096
 158:Middlewares/Third_Party/FatFs/src/ff.c **** #error Wrong sector size configuration
 159:Middlewares/Third_Party/FatFs/src/ff.c **** #endif
 160:Middlewares/Third_Party/FatFs/src/ff.c **** #if _MAX_SS == _MIN_SS
 161:Middlewares/Third_Party/FatFs/src/ff.c **** #define	SS(fs)	((UINT)_MAX_SS)	/* Fixed sector size */
 162:Middlewares/Third_Party/FatFs/src/ff.c **** #else
 163:Middlewares/Third_Party/FatFs/src/ff.c **** #define	SS(fs)	((fs)->ssize)	/* Variable sector size */
 164:Middlewares/Third_Party/FatFs/src/ff.c **** #endif
 165:Middlewares/Third_Party/FatFs/src/ff.c **** 
 166:Middlewares/Third_Party/FatFs/src/ff.c **** 
 167:Middlewares/Third_Party/FatFs/src/ff.c **** /* Timestamp feature */
 168:Middlewares/Third_Party/FatFs/src/ff.c **** #if _FS_NORTC == 1
 169:Middlewares/Third_Party/FatFs/src/ff.c **** #if _NORTC_YEAR < 1980 || _NORTC_YEAR > 2107 || _NORTC_MON < 1 || _NORTC_MON > 12 || _NORTC_MDAY < 
 170:Middlewares/Third_Party/FatFs/src/ff.c **** #error Invalid _FS_NORTC settings
 171:Middlewares/Third_Party/FatFs/src/ff.c **** #endif
 172:Middlewares/Third_Party/FatFs/src/ff.c **** #define GET_FATTIME()	((DWORD)(_NORTC_YEAR - 1980) << 25 | (DWORD)_NORTC_MON << 21 | (DWORD)_NORTC_
 173:Middlewares/Third_Party/FatFs/src/ff.c **** #else
 174:Middlewares/Third_Party/FatFs/src/ff.c **** #define GET_FATTIME()	get_fattime()
 175:Middlewares/Third_Party/FatFs/src/ff.c **** #endif
 176:Middlewares/Third_Party/FatFs/src/ff.c **** 
 177:Middlewares/Third_Party/FatFs/src/ff.c **** 
 178:Middlewares/Third_Party/FatFs/src/ff.c **** /* File access control feature */
 179:Middlewares/Third_Party/FatFs/src/ff.c **** #if _FS_LOCK
 180:Middlewares/Third_Party/FatFs/src/ff.c **** #if _FS_READONLY
 181:Middlewares/Third_Party/FatFs/src/ff.c **** #error _FS_LOCK must be 0 at read-only configuration
 182:Middlewares/Third_Party/FatFs/src/ff.c **** #endif
 183:Middlewares/Third_Party/FatFs/src/ff.c **** typedef struct {
 184:Middlewares/Third_Party/FatFs/src/ff.c **** 	FATFS *fs;		/* Object ID 1, volume (NULL:blank entry) */
 185:Middlewares/Third_Party/FatFs/src/ff.c **** 	DWORD clu;		/* Object ID 2, directory (0:root) */
 186:Middlewares/Third_Party/FatFs/src/ff.c **** 	WORD idx;		/* Object ID 3, directory index */
 187:Middlewares/Third_Party/FatFs/src/ff.c **** 	WORD ctr;		/* Object open counter, 0:none, 0x01..0xFF:read mode open count, 0x100:write mode */
 188:Middlewares/Third_Party/FatFs/src/ff.c **** } FILESEM;
 189:Middlewares/Third_Party/FatFs/src/ff.c **** #endif
 190:Middlewares/Third_Party/FatFs/src/ff.c **** 
 191:Middlewares/Third_Party/FatFs/src/ff.c **** 
 192:Middlewares/Third_Party/FatFs/src/ff.c **** 
 193:Middlewares/Third_Party/FatFs/src/ff.c **** /* DBCS code ranges and SBCS extend character conversion table */
 194:Middlewares/Third_Party/FatFs/src/ff.c **** 
 195:Middlewares/Third_Party/FatFs/src/ff.c **** #if _CODE_PAGE == 932	/* Japanese Shift-JIS */
 196:Middlewares/Third_Party/FatFs/src/ff.c **** #define _DF1S	0x81	/* DBC 1st byte range 1 start */
 197:Middlewares/Third_Party/FatFs/src/ff.c **** #define _DF1E	0x9F	/* DBC 1st byte range 1 end */
 198:Middlewares/Third_Party/FatFs/src/ff.c **** #define _DF2S	0xE0	/* DBC 1st byte range 2 start */
 199:Middlewares/Third_Party/FatFs/src/ff.c **** #define _DF2E	0xFC	/* DBC 1st byte range 2 end */
 200:Middlewares/Third_Party/FatFs/src/ff.c **** #define _DS1S	0x40	/* DBC 2nd byte range 1 start */
 201:Middlewares/Third_Party/FatFs/src/ff.c **** #define _DS1E	0x7E	/* DBC 2nd byte range 1 end */
 202:Middlewares/Third_Party/FatFs/src/ff.c **** #define _DS2S	0x80	/* DBC 2nd byte range 2 start */
 203:Middlewares/Third_Party/FatFs/src/ff.c **** #define _DS2E	0xFC	/* DBC 2nd byte range 2 end */
ARM GAS  /tmp/cciFFPmJ.s 			page 5


 204:Middlewares/Third_Party/FatFs/src/ff.c **** 
 205:Middlewares/Third_Party/FatFs/src/ff.c **** #elif _CODE_PAGE == 936	/* Simplified Chinese GBK */
 206:Middlewares/Third_Party/FatFs/src/ff.c **** #define _DF1S	0x81
 207:Middlewares/Third_Party/FatFs/src/ff.c **** #define _DF1E	0xFE
 208:Middlewares/Third_Party/FatFs/src/ff.c **** #define _DS1S	0x40
 209:Middlewares/Third_Party/FatFs/src/ff.c **** #define _DS1E	0x7E
 210:Middlewares/Third_Party/FatFs/src/ff.c **** #define _DS2S	0x80
 211:Middlewares/Third_Party/FatFs/src/ff.c **** #define _DS2E	0xFE
 212:Middlewares/Third_Party/FatFs/src/ff.c **** 
 213:Middlewares/Third_Party/FatFs/src/ff.c **** #elif _CODE_PAGE == 949	/* Korean */
 214:Middlewares/Third_Party/FatFs/src/ff.c **** #define _DF1S	0x81
 215:Middlewares/Third_Party/FatFs/src/ff.c **** #define _DF1E	0xFE
 216:Middlewares/Third_Party/FatFs/src/ff.c **** #define _DS1S	0x41
 217:Middlewares/Third_Party/FatFs/src/ff.c **** #define _DS1E	0x5A
 218:Middlewares/Third_Party/FatFs/src/ff.c **** #define _DS2S	0x61
 219:Middlewares/Third_Party/FatFs/src/ff.c **** #define _DS2E	0x7A
 220:Middlewares/Third_Party/FatFs/src/ff.c **** #define _DS3S	0x81
 221:Middlewares/Third_Party/FatFs/src/ff.c **** #define _DS3E	0xFE
 222:Middlewares/Third_Party/FatFs/src/ff.c **** 
 223:Middlewares/Third_Party/FatFs/src/ff.c **** #elif _CODE_PAGE == 950	/* Traditional Chinese Big5 */
 224:Middlewares/Third_Party/FatFs/src/ff.c **** #define _DF1S	0x81
 225:Middlewares/Third_Party/FatFs/src/ff.c **** #define _DF1E	0xFE
 226:Middlewares/Third_Party/FatFs/src/ff.c **** #define _DS1S	0x40
 227:Middlewares/Third_Party/FatFs/src/ff.c **** #define _DS1E	0x7E
 228:Middlewares/Third_Party/FatFs/src/ff.c **** #define _DS2S	0xA1
 229:Middlewares/Third_Party/FatFs/src/ff.c **** #define _DS2E	0xFE
 230:Middlewares/Third_Party/FatFs/src/ff.c **** 
 231:Middlewares/Third_Party/FatFs/src/ff.c **** #elif _CODE_PAGE == 437	/* U.S. (OEM) */
 232:Middlewares/Third_Party/FatFs/src/ff.c **** #define _DF1S	0
 233:Middlewares/Third_Party/FatFs/src/ff.c **** #define _EXCVT {0x80,0x9A,0x90,0x41,0x8E,0x41,0x8F,0x80,0x45,0x45,0x45,0x49,0x49,0x49,0x8E,0x8F,0x9
 234:Middlewares/Third_Party/FatFs/src/ff.c **** 				0x41,0x49,0x4F,0x55,0xA5,0xA5,0xA6,0xA7,0xA8,0xA9,0xAA,0xAB,0xAC,0x21,0xAE,0xAF,0xB0,0xB1,0xB2,
 235:Middlewares/Third_Party/FatFs/src/ff.c **** 				0xC0,0xC1,0xC2,0xC3,0xC4,0xC5,0xC6,0xC7,0xC8,0xC9,0xCA,0xCB,0xCC,0xCD,0xCE,0xCF,0xD0,0xD1,0xD2,
 236:Middlewares/Third_Party/FatFs/src/ff.c **** 				0xE0,0xE1,0xE2,0xE3,0xE4,0xE5,0xE6,0xE7,0xE8,0xE9,0xEA,0xEB,0xEC,0xED,0xEE,0xEF,0xF0,0xF1,0xF2,
 237:Middlewares/Third_Party/FatFs/src/ff.c **** 
 238:Middlewares/Third_Party/FatFs/src/ff.c **** #elif _CODE_PAGE == 720	/* Arabic (OEM) */
 239:Middlewares/Third_Party/FatFs/src/ff.c **** #define _DF1S	0
 240:Middlewares/Third_Party/FatFs/src/ff.c **** #define _EXCVT {0x80,0x81,0x45,0x41,0x84,0x41,0x86,0x43,0x45,0x45,0x45,0x49,0x49,0x8D,0x8E,0x8F,0x9
 241:Middlewares/Third_Party/FatFs/src/ff.c **** 				0xA0,0xA1,0xA2,0xA3,0xA4,0xA5,0xA6,0xA7,0xA8,0xA9,0xAA,0xAB,0xAC,0xAD,0xAE,0xAF,0xB0,0xB1,0xB2,
 242:Middlewares/Third_Party/FatFs/src/ff.c **** 				0xC0,0xC1,0xC2,0xC3,0xC4,0xC5,0xC6,0xC7,0xC8,0xC9,0xCA,0xCB,0xCC,0xCD,0xCE,0xCF,0xD0,0xD1,0xD2,
 243:Middlewares/Third_Party/FatFs/src/ff.c **** 				0xE0,0xE1,0xE2,0xE3,0xE4,0xE5,0xE6,0xE7,0xE8,0xE9,0xEA,0xEB,0xEC,0xED,0xEE,0xEF,0xF0,0xF1,0xF2,
 244:Middlewares/Third_Party/FatFs/src/ff.c **** 
 245:Middlewares/Third_Party/FatFs/src/ff.c **** #elif _CODE_PAGE == 737	/* Greek (OEM) */
 246:Middlewares/Third_Party/FatFs/src/ff.c **** #define _DF1S	0
 247:Middlewares/Third_Party/FatFs/src/ff.c **** #define _EXCVT {0x80,0x81,0x82,0x83,0x84,0x85,0x86,0x87,0x88,0x89,0x8A,0x8B,0x8C,0x8D,0x8E,0x8F,0x9
 248:Middlewares/Third_Party/FatFs/src/ff.c **** 				0x88,0x89,0x8A,0x8B,0x8C,0x8D,0x8E,0x8F,0x90,0x91,0xAA,0x92,0x93,0x94,0x95,0x96,0xB0,0xB1,0xB2,
 249:Middlewares/Third_Party/FatFs/src/ff.c **** 				0xC0,0xC1,0xC2,0xC3,0xC4,0xC5,0xC6,0xC7,0xC8,0xC9,0xCA,0xCB,0xCC,0xCD,0xCE,0xCF,0xD0,0xD1,0xD2,
 250:Middlewares/Third_Party/FatFs/src/ff.c **** 				0x97,0xEA,0xEB,0xEC,0xE4,0xED,0xEE,0xE7,0xE8,0xF1,0xEA,0xEB,0xEC,0xED,0xEE,0xEF,0xF0,0xF1,0xF2,
 251:Middlewares/Third_Party/FatFs/src/ff.c **** 
 252:Middlewares/Third_Party/FatFs/src/ff.c **** #elif _CODE_PAGE == 775	/* Baltic (OEM) */
 253:Middlewares/Third_Party/FatFs/src/ff.c **** #define _DF1S	0
 254:Middlewares/Third_Party/FatFs/src/ff.c **** #define _EXCVT {0x80,0x9A,0x91,0xA0,0x8E,0x95,0x8F,0x80,0xAD,0xED,0x8A,0x8A,0xA1,0x8D,0x8E,0x8F,0x9
 255:Middlewares/Third_Party/FatFs/src/ff.c **** 				0xA0,0xA1,0xE0,0xA3,0xA3,0xA5,0xA6,0xA7,0xA8,0xA9,0xAA,0xAB,0xAC,0xAD,0xAE,0xAF,0xB0,0xB1,0xB2,
 256:Middlewares/Third_Party/FatFs/src/ff.c **** 				0xC0,0xC1,0xC2,0xC3,0xC4,0xC5,0xC6,0xC7,0xC8,0xC9,0xCA,0xCB,0xCC,0xCD,0xCE,0xCF,0xB5,0xB6,0xB7,
 257:Middlewares/Third_Party/FatFs/src/ff.c **** 				0xE0,0xE1,0xE2,0xE3,0xE5,0xE5,0xE6,0xE3,0xE8,0xE8,0xEA,0xEA,0xEE,0xED,0xEE,0xEF,0xF0,0xF1,0xF2,
 258:Middlewares/Third_Party/FatFs/src/ff.c **** 
 259:Middlewares/Third_Party/FatFs/src/ff.c **** #elif _CODE_PAGE == 850	/* Multilingual Latin 1 (OEM) */
 260:Middlewares/Third_Party/FatFs/src/ff.c **** #define _DF1S	0
ARM GAS  /tmp/cciFFPmJ.s 			page 6


 261:Middlewares/Third_Party/FatFs/src/ff.c **** #define _EXCVT {0x80,0x9A,0x90,0xB6,0x8E,0xB7,0x8F,0x80,0xD2,0xD3,0xD4,0xD8,0xD7,0xDE,0x8E,0x8F,0x9
 262:Middlewares/Third_Party/FatFs/src/ff.c **** 				0xB5,0xD6,0xE0,0xE9,0xA5,0xA5,0xA6,0xA7,0xA8,0xA9,0xAA,0xAB,0xAC,0x21,0xAE,0xAF,0xB0,0xB1,0xB2,
 263:Middlewares/Third_Party/FatFs/src/ff.c **** 				0xC0,0xC1,0xC2,0xC3,0xC4,0xC5,0xC7,0xC7,0xC8,0xC9,0xCA,0xCB,0xCC,0xCD,0xCE,0xCF,0xD0,0xD1,0xD2,
 264:Middlewares/Third_Party/FatFs/src/ff.c **** 				0xE0,0xE1,0xE2,0xE3,0xE5,0xE5,0xE6,0xE7,0xE7,0xE9,0xEA,0xEB,0xED,0xED,0xEE,0xEF,0xF0,0xF1,0xF2,
 265:Middlewares/Third_Party/FatFs/src/ff.c **** 
 266:Middlewares/Third_Party/FatFs/src/ff.c **** #elif _CODE_PAGE == 852	/* Latin 2 (OEM) */
 267:Middlewares/Third_Party/FatFs/src/ff.c **** #define _DF1S	0
 268:Middlewares/Third_Party/FatFs/src/ff.c **** #define _EXCVT {0x80,0x9A,0x90,0xB6,0x8E,0xDE,0x8F,0x80,0x9D,0xD3,0x8A,0x8A,0xD7,0x8D,0x8E,0x8F,0x9
 269:Middlewares/Third_Party/FatFs/src/ff.c **** 				0xB5,0xD6,0xE0,0xE9,0xA4,0xA4,0xA6,0xA6,0xA8,0xA8,0xAA,0x8D,0xAC,0xB8,0xAE,0xAF,0xB0,0xB1,0xB2,
 270:Middlewares/Third_Party/FatFs/src/ff.c **** 				0xC0,0xC1,0xC2,0xC3,0xC4,0xC5,0xC6,0xC6,0xC8,0xC9,0xCA,0xCB,0xCC,0xCD,0xCE,0xCF,0xD1,0xD1,0xD2,
 271:Middlewares/Third_Party/FatFs/src/ff.c **** 				0xE0,0xE1,0xE2,0xE3,0xE3,0xD5,0xE6,0xE6,0xE8,0xE9,0xE8,0xEB,0xED,0xED,0xDD,0xEF,0xF0,0xF1,0xF2,
 272:Middlewares/Third_Party/FatFs/src/ff.c **** 
 273:Middlewares/Third_Party/FatFs/src/ff.c **** #elif _CODE_PAGE == 855	/* Cyrillic (OEM) */
 274:Middlewares/Third_Party/FatFs/src/ff.c **** #define _DF1S	0
 275:Middlewares/Third_Party/FatFs/src/ff.c **** #define _EXCVT {0x81,0x81,0x83,0x83,0x85,0x85,0x87,0x87,0x89,0x89,0x8B,0x8B,0x8D,0x8D,0x8F,0x8F,0x9
 276:Middlewares/Third_Party/FatFs/src/ff.c **** 				0xA1,0xA1,0xA3,0xA3,0xA5,0xA5,0xA7,0xA7,0xA9,0xA9,0xAB,0xAB,0xAD,0xAD,0xAE,0xAF,0xB0,0xB1,0xB2,
 277:Middlewares/Third_Party/FatFs/src/ff.c **** 				0xC0,0xC1,0xC2,0xC3,0xC4,0xC5,0xC7,0xC7,0xC8,0xC9,0xCA,0xCB,0xCC,0xCD,0xCE,0xCF,0xD1,0xD1,0xD3,
 278:Middlewares/Third_Party/FatFs/src/ff.c **** 				0xE0,0xE2,0xE2,0xE4,0xE4,0xE6,0xE6,0xE8,0xE8,0xEA,0xEA,0xEC,0xEC,0xEE,0xEE,0xEF,0xF0,0xF2,0xF2,
 279:Middlewares/Third_Party/FatFs/src/ff.c **** 
 280:Middlewares/Third_Party/FatFs/src/ff.c **** #elif _CODE_PAGE == 857	/* Turkish (OEM) */
 281:Middlewares/Third_Party/FatFs/src/ff.c **** #define _DF1S	0
 282:Middlewares/Third_Party/FatFs/src/ff.c **** #define _EXCVT {0x80,0x9A,0x90,0xB6,0x8E,0xB7,0x8F,0x80,0xD2,0xD3,0xD4,0xD8,0xD7,0x98,0x8E,0x8F,0x9
 283:Middlewares/Third_Party/FatFs/src/ff.c **** 				0xB5,0xD6,0xE0,0xE9,0xA5,0xA5,0xA6,0xA6,0xA8,0xA9,0xAA,0xAB,0xAC,0x21,0xAE,0xAF,0xB0,0xB1,0xB2,
 284:Middlewares/Third_Party/FatFs/src/ff.c **** 				0xC0,0xC1,0xC2,0xC3,0xC4,0xC5,0xC7,0xC7,0xC8,0xC9,0xCA,0xCB,0xCC,0xCD,0xCE,0xCF,0xD0,0xD1,0xD2,
 285:Middlewares/Third_Party/FatFs/src/ff.c **** 				0xE0,0xE1,0xE2,0xE3,0xE5,0xE5,0xE6,0xE7,0xE8,0xE9,0xEA,0xEB,0xDE,0x59,0xEE,0xEF,0xF0,0xF1,0xF2,
 286:Middlewares/Third_Party/FatFs/src/ff.c **** 
 287:Middlewares/Third_Party/FatFs/src/ff.c **** #elif _CODE_PAGE == 858	/* Multilingual Latin 1 + Euro (OEM) */
 288:Middlewares/Third_Party/FatFs/src/ff.c **** #define _DF1S	0
 289:Middlewares/Third_Party/FatFs/src/ff.c **** #define _EXCVT {0x80,0x9A,0x90,0xB6,0x8E,0xB7,0x8F,0x80,0xD2,0xD3,0xD4,0xD8,0xD7,0xDE,0x8E,0x8F,0x9
 290:Middlewares/Third_Party/FatFs/src/ff.c **** 				0xB5,0xD6,0xE0,0xE9,0xA5,0xA5,0xA6,0xA7,0xA8,0xA9,0xAA,0xAB,0xAC,0x21,0xAE,0xAF,0xB0,0xB1,0xB2,
 291:Middlewares/Third_Party/FatFs/src/ff.c **** 				0xC0,0xC1,0xC2,0xC3,0xC4,0xC5,0xC7,0xC7,0xC8,0xC9,0xCA,0xCB,0xCC,0xCD,0xCE,0xCF,0xD1,0xD1,0xD2,
 292:Middlewares/Third_Party/FatFs/src/ff.c **** 				0xE0,0xE1,0xE2,0xE3,0xE5,0xE5,0xE6,0xE7,0xE7,0xE9,0xEA,0xEB,0xED,0xED,0xEE,0xEF,0xF0,0xF1,0xF2,
 293:Middlewares/Third_Party/FatFs/src/ff.c **** 
 294:Middlewares/Third_Party/FatFs/src/ff.c **** #elif _CODE_PAGE == 862	/* Hebrew (OEM) */
 295:Middlewares/Third_Party/FatFs/src/ff.c **** #define _DF1S	0
 296:Middlewares/Third_Party/FatFs/src/ff.c **** #define _EXCVT {0x80,0x81,0x82,0x83,0x84,0x85,0x86,0x87,0x88,0x89,0x8A,0x8B,0x8C,0x8D,0x8E,0x8F,0x9
 297:Middlewares/Third_Party/FatFs/src/ff.c **** 				0x41,0x49,0x4F,0x55,0xA5,0xA5,0xA6,0xA7,0xA8,0xA9,0xAA,0xAB,0xAC,0x21,0xAE,0xAF,0xB0,0xB1,0xB2,
 298:Middlewares/Third_Party/FatFs/src/ff.c **** 				0xC0,0xC1,0xC2,0xC3,0xC4,0xC5,0xC6,0xC7,0xC8,0xC9,0xCA,0xCB,0xCC,0xCD,0xCE,0xCF,0xD0,0xD1,0xD2,
 299:Middlewares/Third_Party/FatFs/src/ff.c **** 				0xE0,0xE1,0xE2,0xE3,0xE4,0xE5,0xE6,0xE7,0xE8,0xE9,0xEA,0xEB,0xEC,0xED,0xEE,0xEF,0xF0,0xF1,0xF2,
 300:Middlewares/Third_Party/FatFs/src/ff.c **** 
 301:Middlewares/Third_Party/FatFs/src/ff.c **** #elif _CODE_PAGE == 866	/* Russian (OEM) */
 302:Middlewares/Third_Party/FatFs/src/ff.c **** #define _DF1S	0
 303:Middlewares/Third_Party/FatFs/src/ff.c **** #define _EXCVT {0x80,0x81,0x82,0x83,0x84,0x85,0x86,0x87,0x88,0x89,0x8A,0x8B,0x8C,0x8D,0x8E,0x8F,0x9
 304:Middlewares/Third_Party/FatFs/src/ff.c **** 				0x80,0x81,0x82,0x83,0x84,0x85,0x86,0x87,0x88,0x89,0x8A,0x8B,0x8C,0x8D,0x8E,0x8F,0xB0,0xB1,0xB2,
 305:Middlewares/Third_Party/FatFs/src/ff.c **** 				0xC0,0xC1,0xC2,0xC3,0xC4,0xC5,0xC6,0xC7,0xC8,0xC9,0xCA,0xCB,0xCC,0xCD,0xCE,0xCF,0xD0,0xD1,0xD2,
 306:Middlewares/Third_Party/FatFs/src/ff.c **** 				0x90,0x91,0x92,0x93,0x9d,0x95,0x96,0x97,0x98,0x99,0x9A,0x9B,0x9C,0x9D,0x9E,0x9F,0xF0,0xF0,0xF2,
 307:Middlewares/Third_Party/FatFs/src/ff.c **** 
 308:Middlewares/Third_Party/FatFs/src/ff.c **** #elif _CODE_PAGE == 874	/* Thai (OEM, Windows) */
 309:Middlewares/Third_Party/FatFs/src/ff.c **** #define _DF1S	0
 310:Middlewares/Third_Party/FatFs/src/ff.c **** #define _EXCVT {0x80,0x81,0x82,0x83,0x84,0x85,0x86,0x87,0x88,0x89,0x8A,0x8B,0x8C,0x8D,0x8E,0x8F,0x9
 311:Middlewares/Third_Party/FatFs/src/ff.c **** 				0xA0,0xA1,0xA2,0xA3,0xA4,0xA5,0xA6,0xA7,0xA8,0xA9,0xAA,0xAB,0xAC,0xAD,0xAE,0xAF,0xB0,0xB1,0xB2,
 312:Middlewares/Third_Party/FatFs/src/ff.c **** 				0xC0,0xC1,0xC2,0xC3,0xC4,0xC5,0xC6,0xC7,0xC8,0xC9,0xCA,0xCB,0xCC,0xCD,0xCE,0xCF,0xD0,0xD1,0xD2,
 313:Middlewares/Third_Party/FatFs/src/ff.c **** 				0xE0,0xE1,0xE2,0xE3,0xE4,0xE5,0xE6,0xE7,0xE8,0xE9,0xEA,0xEB,0xEC,0xED,0xEE,0xEF,0xF0,0xF1,0xF2,
 314:Middlewares/Third_Party/FatFs/src/ff.c **** 
 315:Middlewares/Third_Party/FatFs/src/ff.c **** #elif _CODE_PAGE == 1250 /* Central Europe (Windows) */
 316:Middlewares/Third_Party/FatFs/src/ff.c **** #define _DF1S	0
 317:Middlewares/Third_Party/FatFs/src/ff.c **** #define _EXCVT {0x80,0x81,0x82,0x83,0x84,0x85,0x86,0x87,0x88,0x89,0x8A,0x8B,0x8C,0x8D,0x8E,0x8F,0x9
ARM GAS  /tmp/cciFFPmJ.s 			page 7


 318:Middlewares/Third_Party/FatFs/src/ff.c **** 				0xA0,0xA1,0xA2,0xA3,0xA4,0xA5,0xA6,0xA7,0xA8,0xA9,0xAA,0xAB,0xAC,0xAD,0xAE,0xAF,0xB0,0xB1,0xB2,
 319:Middlewares/Third_Party/FatFs/src/ff.c **** 				0xC0,0xC1,0xC2,0xC3,0xC4,0xC5,0xC6,0xC7,0xC8,0xC9,0xCA,0xCB,0xCC,0xCD,0xCE,0xCF,0xD0,0xD1,0xD2,
 320:Middlewares/Third_Party/FatFs/src/ff.c **** 				0xC0,0xC1,0xC2,0xC3,0xC4,0xC5,0xC6,0xC7,0xC8,0xC9,0xCA,0xCB,0xCC,0xCD,0xCE,0xCF,0xD0,0xD1,0xD2,
 321:Middlewares/Third_Party/FatFs/src/ff.c **** 
 322:Middlewares/Third_Party/FatFs/src/ff.c **** #elif _CODE_PAGE == 1251 /* Cyrillic (Windows) */
 323:Middlewares/Third_Party/FatFs/src/ff.c **** #define _DF1S	0
 324:Middlewares/Third_Party/FatFs/src/ff.c **** #define _EXCVT {0x80,0x81,0x82,0x82,0x84,0x85,0x86,0x87,0x88,0x89,0x8A,0x8B,0x8C,0x8D,0x8E,0x8F,0x8
 325:Middlewares/Third_Party/FatFs/src/ff.c **** 				0xA0,0xA2,0xA2,0xA3,0xA4,0xA5,0xA6,0xA7,0xA8,0xA9,0xAA,0xAB,0xAC,0xAD,0xAE,0xAF,0xB0,0xB1,0xB2,
 326:Middlewares/Third_Party/FatFs/src/ff.c **** 				0xC0,0xC1,0xC2,0xC3,0xC4,0xC5,0xC6,0xC7,0xC8,0xC9,0xCA,0xCB,0xCC,0xCD,0xCE,0xCF,0xD0,0xD1,0xD2,
 327:Middlewares/Third_Party/FatFs/src/ff.c **** 				0xC0,0xC1,0xC2,0xC3,0xC4,0xC5,0xC6,0xC7,0xC8,0xC9,0xCA,0xCB,0xCC,0xCD,0xCE,0xCF,0xD0,0xD1,0xD2,
 328:Middlewares/Third_Party/FatFs/src/ff.c **** 
 329:Middlewares/Third_Party/FatFs/src/ff.c **** #elif _CODE_PAGE == 1252 /* Latin 1 (Windows) */
 330:Middlewares/Third_Party/FatFs/src/ff.c **** #define _DF1S	0
 331:Middlewares/Third_Party/FatFs/src/ff.c **** #define _EXCVT {0x80,0x81,0x82,0x83,0x84,0x85,0x86,0x87,0x88,0x89,0x8A,0x8B,0x8C,0x8D,0x8E,0x8F,0x9
 332:Middlewares/Third_Party/FatFs/src/ff.c **** 				0xA0,0x21,0xA2,0xA3,0xA4,0xA5,0xA6,0xA7,0xA8,0xA9,0xAA,0xAB,0xAC,0xAD,0xAE,0xAF,0xB0,0xB1,0xB2,
 333:Middlewares/Third_Party/FatFs/src/ff.c **** 				0xC0,0xC1,0xC2,0xC3,0xC4,0xC5,0xC6,0xC7,0xC8,0xC9,0xCA,0xCB,0xCC,0xCD,0xCE,0xCF,0xD0,0xD1,0xD2,
 334:Middlewares/Third_Party/FatFs/src/ff.c **** 				0xC0,0xC1,0xC2,0xC3,0xC4,0xC5,0xC6,0xC7,0xC8,0xC9,0xCA,0xCB,0xCC,0xCD,0xCE,0xCF,0xD0,0xD1,0xD2,
 335:Middlewares/Third_Party/FatFs/src/ff.c **** 
 336:Middlewares/Third_Party/FatFs/src/ff.c **** #elif _CODE_PAGE == 1253 /* Greek (Windows) */
 337:Middlewares/Third_Party/FatFs/src/ff.c **** #define _DF1S	0
 338:Middlewares/Third_Party/FatFs/src/ff.c **** #define _EXCVT {0x80,0x81,0x82,0x83,0x84,0x85,0x86,0x87,0x88,0x89,0x8A,0x8B,0x8C,0x8D,0x8E,0x8F,0x9
 339:Middlewares/Third_Party/FatFs/src/ff.c **** 				0xA0,0xA1,0xA2,0xA3,0xA4,0xA5,0xA6,0xA7,0xA8,0xA9,0xAA,0xAB,0xAC,0xAD,0xAE,0xAF,0xB0,0xB1,0xB2,
 340:Middlewares/Third_Party/FatFs/src/ff.c **** 				0xC0,0xC1,0xC2,0xC3,0xC4,0xC5,0xC6,0xC7,0xC8,0xC9,0xCA,0xCB,0xCC,0xCD,0xCE,0xCF,0xD0,0xD1,0xD2,
 341:Middlewares/Third_Party/FatFs/src/ff.c **** 				0xE0,0xC1,0xC2,0xC3,0xC4,0xC5,0xC6,0xC7,0xC8,0xC9,0xCA,0xCB,0xCC,0xCD,0xCE,0xCF,0xD0,0xD1,0xF2,
 342:Middlewares/Third_Party/FatFs/src/ff.c **** 
 343:Middlewares/Third_Party/FatFs/src/ff.c **** #elif _CODE_PAGE == 1254 /* Turkish (Windows) */
 344:Middlewares/Third_Party/FatFs/src/ff.c **** #define _DF1S	0
 345:Middlewares/Third_Party/FatFs/src/ff.c **** #define _EXCVT {0x80,0x81,0x82,0x83,0x84,0x85,0x86,0x87,0x88,0x89,0x8A,0x8B,0x8C,0x8D,0x8E,0x8F,0x9
 346:Middlewares/Third_Party/FatFs/src/ff.c **** 				0xA0,0x21,0xA2,0xA3,0xA4,0xA5,0xA6,0xA7,0xA8,0xA9,0xAA,0xAB,0xAC,0xAD,0xAE,0xAF,0xB0,0xB1,0xB2,
 347:Middlewares/Third_Party/FatFs/src/ff.c **** 				0xC0,0xC1,0xC2,0xC3,0xC4,0xC5,0xC6,0xC7,0xC8,0xC9,0xCA,0xCB,0xCC,0xCD,0xCE,0xCF,0xD0,0xD1,0xD2,
 348:Middlewares/Third_Party/FatFs/src/ff.c **** 				0xC0,0xC1,0xC2,0xC3,0xC4,0xC5,0xC6,0xC7,0xC8,0xC9,0xCA,0xCB,0xCC,0xCD,0xCE,0xCF,0xD0,0xD1,0xD2,
 349:Middlewares/Third_Party/FatFs/src/ff.c **** 
 350:Middlewares/Third_Party/FatFs/src/ff.c **** #elif _CODE_PAGE == 1255 /* Hebrew (Windows) */
 351:Middlewares/Third_Party/FatFs/src/ff.c **** #define _DF1S	0
 352:Middlewares/Third_Party/FatFs/src/ff.c **** #define _EXCVT {0x80,0x81,0x82,0x83,0x84,0x85,0x86,0x87,0x88,0x89,0x8A,0x8B,0x8C,0x8D,0x8E,0x8F,0x9
 353:Middlewares/Third_Party/FatFs/src/ff.c **** 				0xA0,0x21,0xA2,0xA3,0xA4,0xA5,0xA6,0xA7,0xA8,0xA9,0xAA,0xAB,0xAC,0xAD,0xAE,0xAF,0xB0,0xB1,0xB2,
 354:Middlewares/Third_Party/FatFs/src/ff.c **** 				0xC0,0xC1,0xC2,0xC3,0xC4,0xC5,0xC6,0xC7,0xC8,0xC9,0xCA,0xCB,0xCC,0xCD,0xCE,0xCF,0xD0,0xD1,0xD2,
 355:Middlewares/Third_Party/FatFs/src/ff.c **** 				0xE0,0xE1,0xE2,0xE3,0xE4,0xE5,0xE6,0xE7,0xE8,0xE9,0xEA,0xEB,0xEC,0xED,0xEE,0xEF,0xF0,0xF1,0xF2,
 356:Middlewares/Third_Party/FatFs/src/ff.c **** 
 357:Middlewares/Third_Party/FatFs/src/ff.c **** #elif _CODE_PAGE == 1256 /* Arabic (Windows) */
 358:Middlewares/Third_Party/FatFs/src/ff.c **** #define _DF1S	0
 359:Middlewares/Third_Party/FatFs/src/ff.c **** #define _EXCVT {0x80,0x81,0x82,0x83,0x84,0x85,0x86,0x87,0x88,0x89,0x8A,0x8B,0x8C,0x8D,0x8E,0x8F,0x9
 360:Middlewares/Third_Party/FatFs/src/ff.c **** 				0xA0,0xA1,0xA2,0xA3,0xA4,0xA5,0xA6,0xA7,0xA8,0xA9,0xAA,0xAB,0xAC,0xAD,0xAE,0xAF,0xB0,0xB1,0xB2,
 361:Middlewares/Third_Party/FatFs/src/ff.c **** 				0xC0,0xC1,0xC2,0xC3,0xC4,0xC5,0xC6,0xC7,0xC8,0xC9,0xCA,0xCB,0xCC,0xCD,0xCE,0xCF,0xD0,0xD1,0xD2,
 362:Middlewares/Third_Party/FatFs/src/ff.c **** 				0x41,0xE1,0x41,0xE3,0xE4,0xE5,0xE6,0x43,0x45,0x45,0x45,0x45,0xEC,0xED,0x49,0x49,0xF0,0xF1,0xF2,
 363:Middlewares/Third_Party/FatFs/src/ff.c **** 
 364:Middlewares/Third_Party/FatFs/src/ff.c **** #elif _CODE_PAGE == 1257 /* Baltic (Windows) */
 365:Middlewares/Third_Party/FatFs/src/ff.c **** #define _DF1S	0
 366:Middlewares/Third_Party/FatFs/src/ff.c **** #define _EXCVT {0x80,0x81,0x82,0x83,0x84,0x85,0x86,0x87,0x88,0x89,0x8A,0x8B,0x8C,0x8D,0x8E,0x8F,0x9
 367:Middlewares/Third_Party/FatFs/src/ff.c **** 				0xA0,0xA1,0xA2,0xA3,0xA4,0xA5,0xA6,0xA7,0xA8,0xA9,0xAA,0xAB,0xAC,0xAD,0xAE,0xAF,0xB0,0xB1,0xB2,
 368:Middlewares/Third_Party/FatFs/src/ff.c **** 				0xC0,0xC1,0xC2,0xC3,0xC4,0xC5,0xC6,0xC7,0xC8,0xC9,0xCA,0xCB,0xCC,0xCD,0xCE,0xCF,0xD0,0xD1,0xD2,
 369:Middlewares/Third_Party/FatFs/src/ff.c **** 				0xC0,0xC1,0xC2,0xC3,0xC4,0xC5,0xC6,0xC7,0xC8,0xC9,0xCA,0xCB,0xCC,0xCD,0xCE,0xCF,0xD0,0xD1,0xD2,
 370:Middlewares/Third_Party/FatFs/src/ff.c **** 
 371:Middlewares/Third_Party/FatFs/src/ff.c **** #elif _CODE_PAGE == 1258 /* Vietnam (OEM, Windows) */
 372:Middlewares/Third_Party/FatFs/src/ff.c **** #define _DF1S	0
 373:Middlewares/Third_Party/FatFs/src/ff.c **** #define _EXCVT {0x80,0x81,0x82,0x83,0x84,0x85,0x86,0x87,0x88,0x89,0x8A,0x8B,0x8C,0x8D,0x8E,0x8F,0x9
 374:Middlewares/Third_Party/FatFs/src/ff.c **** 				0xA0,0x21,0xA2,0xA3,0xA4,0xA5,0xA6,0xA7,0xA8,0xA9,0xAA,0xAB,0xAC,0xAD,0xAE,0xAF,0xB0,0xB1,0xB2,
ARM GAS  /tmp/cciFFPmJ.s 			page 8


 375:Middlewares/Third_Party/FatFs/src/ff.c **** 				0xC0,0xC1,0xC2,0xC3,0xC4,0xC5,0xC6,0xC7,0xC8,0xC9,0xCA,0xCB,0xCC,0xCD,0xCE,0xCF,0xD0,0xD1,0xD2,
 376:Middlewares/Third_Party/FatFs/src/ff.c **** 				0xC0,0xC1,0xC2,0xC3,0xC4,0xC5,0xC6,0xC7,0xC8,0xC9,0xCA,0xCB,0xEC,0xCD,0xCE,0xCF,0xD0,0xD1,0xF2,
 377:Middlewares/Third_Party/FatFs/src/ff.c **** 
 378:Middlewares/Third_Party/FatFs/src/ff.c **** #elif _CODE_PAGE == 1	/* ASCII (for only non-LFN cfg) */
 379:Middlewares/Third_Party/FatFs/src/ff.c **** #if _USE_LFN
 380:Middlewares/Third_Party/FatFs/src/ff.c **** #error Cannot use LFN feature without valid code page.
 381:Middlewares/Third_Party/FatFs/src/ff.c **** #endif
 382:Middlewares/Third_Party/FatFs/src/ff.c **** #define _DF1S	0
 383:Middlewares/Third_Party/FatFs/src/ff.c **** 
 384:Middlewares/Third_Party/FatFs/src/ff.c **** #else
 385:Middlewares/Third_Party/FatFs/src/ff.c **** #error Unknown code page
 386:Middlewares/Third_Party/FatFs/src/ff.c **** 
 387:Middlewares/Third_Party/FatFs/src/ff.c **** #endif
 388:Middlewares/Third_Party/FatFs/src/ff.c **** 
 389:Middlewares/Third_Party/FatFs/src/ff.c **** 
 390:Middlewares/Third_Party/FatFs/src/ff.c **** /* Character code support macros */
 391:Middlewares/Third_Party/FatFs/src/ff.c **** #define IsUpper(c)	(((c)>='A')&&((c)<='Z'))
 392:Middlewares/Third_Party/FatFs/src/ff.c **** #define IsLower(c)	(((c)>='a')&&((c)<='z'))
 393:Middlewares/Third_Party/FatFs/src/ff.c **** #define IsDigit(c)	(((c)>='0')&&((c)<='9'))
 394:Middlewares/Third_Party/FatFs/src/ff.c **** 
 395:Middlewares/Third_Party/FatFs/src/ff.c **** #if _DF1S		/* Code page is DBCS */
 396:Middlewares/Third_Party/FatFs/src/ff.c **** 
 397:Middlewares/Third_Party/FatFs/src/ff.c **** #ifdef _DF2S	/* Two 1st byte areas */
 398:Middlewares/Third_Party/FatFs/src/ff.c **** #define IsDBCS1(c)	(((BYTE)(c) >= _DF1S && (BYTE)(c) <= _DF1E) || ((BYTE)(c) >= _DF2S && (BYTE)(c) 
 399:Middlewares/Third_Party/FatFs/src/ff.c **** #else			/* One 1st byte area */
 400:Middlewares/Third_Party/FatFs/src/ff.c **** #define IsDBCS1(c)	((BYTE)(c) >= _DF1S && (BYTE)(c) <= _DF1E)
 401:Middlewares/Third_Party/FatFs/src/ff.c **** #endif
 402:Middlewares/Third_Party/FatFs/src/ff.c **** 
 403:Middlewares/Third_Party/FatFs/src/ff.c **** #ifdef _DS3S	/* Three 2nd byte areas */
 404:Middlewares/Third_Party/FatFs/src/ff.c **** #define IsDBCS2(c)	(((BYTE)(c) >= _DS1S && (BYTE)(c) <= _DS1E) || ((BYTE)(c) >= _DS2S && (BYTE)(c) 
 405:Middlewares/Third_Party/FatFs/src/ff.c **** #else			/* Two 2nd byte areas */
 406:Middlewares/Third_Party/FatFs/src/ff.c **** #define IsDBCS2(c)	(((BYTE)(c) >= _DS1S && (BYTE)(c) <= _DS1E) || ((BYTE)(c) >= _DS2S && (BYTE)(c) 
 407:Middlewares/Third_Party/FatFs/src/ff.c **** #endif
 408:Middlewares/Third_Party/FatFs/src/ff.c **** 
 409:Middlewares/Third_Party/FatFs/src/ff.c **** #else			/* Code page is SBCS */
 410:Middlewares/Third_Party/FatFs/src/ff.c **** 
 411:Middlewares/Third_Party/FatFs/src/ff.c **** #define IsDBCS1(c)	0
 412:Middlewares/Third_Party/FatFs/src/ff.c **** #define IsDBCS2(c)	0
 413:Middlewares/Third_Party/FatFs/src/ff.c **** 
 414:Middlewares/Third_Party/FatFs/src/ff.c **** #endif /* _DF1S */
 415:Middlewares/Third_Party/FatFs/src/ff.c **** 
 416:Middlewares/Third_Party/FatFs/src/ff.c **** 
 417:Middlewares/Third_Party/FatFs/src/ff.c **** /* Name status flags */
 418:Middlewares/Third_Party/FatFs/src/ff.c **** #define NSFLAG		11		/* Index of name status byte in fn[] */
 419:Middlewares/Third_Party/FatFs/src/ff.c **** #define NS_LOSS		0x01	/* Out of 8.3 format */
 420:Middlewares/Third_Party/FatFs/src/ff.c **** #define NS_LFN		0x02	/* Force to create LFN entry */
 421:Middlewares/Third_Party/FatFs/src/ff.c **** #define NS_LAST		0x04	/* Last segment */
 422:Middlewares/Third_Party/FatFs/src/ff.c **** #define NS_BODY		0x08	/* Lower case flag (body) */
 423:Middlewares/Third_Party/FatFs/src/ff.c **** #define NS_EXT		0x10	/* Lower case flag (ext) */
 424:Middlewares/Third_Party/FatFs/src/ff.c **** #define NS_DOT		0x20	/* Dot entry */
 425:Middlewares/Third_Party/FatFs/src/ff.c **** 
 426:Middlewares/Third_Party/FatFs/src/ff.c **** 
 427:Middlewares/Third_Party/FatFs/src/ff.c **** /* FAT sub-type boundaries (Differ from specs but correct for real DOS/Windows) */
 428:Middlewares/Third_Party/FatFs/src/ff.c **** #define MIN_FAT16	4086U	/* Minimum number of clusters as FAT16 */
 429:Middlewares/Third_Party/FatFs/src/ff.c **** #define	MIN_FAT32	65526U	/* Minimum number of clusters as FAT32 */
 430:Middlewares/Third_Party/FatFs/src/ff.c **** 
 431:Middlewares/Third_Party/FatFs/src/ff.c **** 
ARM GAS  /tmp/cciFFPmJ.s 			page 9


 432:Middlewares/Third_Party/FatFs/src/ff.c **** /* FatFs refers the members in the FAT structures as byte array instead of
 433:Middlewares/Third_Party/FatFs/src/ff.c **** / structure member because the structure is not binary compatible between
 434:Middlewares/Third_Party/FatFs/src/ff.c **** / different platforms */
 435:Middlewares/Third_Party/FatFs/src/ff.c **** 
 436:Middlewares/Third_Party/FatFs/src/ff.c **** #define BS_jmpBoot			0		/* x86 jump instruction (3) */
 437:Middlewares/Third_Party/FatFs/src/ff.c **** #define BS_OEMName			3		/* OEM name (8) */
 438:Middlewares/Third_Party/FatFs/src/ff.c **** #define BPB_BytsPerSec		11		/* Sector size [byte] (2) */
 439:Middlewares/Third_Party/FatFs/src/ff.c **** #define BPB_SecPerClus		13		/* Cluster size [sector] (1) */
 440:Middlewares/Third_Party/FatFs/src/ff.c **** #define BPB_RsvdSecCnt		14		/* Size of reserved area [sector] (2) */
 441:Middlewares/Third_Party/FatFs/src/ff.c **** #define BPB_NumFATs			16		/* Number of FAT copies (1) */
 442:Middlewares/Third_Party/FatFs/src/ff.c **** #define BPB_RootEntCnt		17		/* Number of root directory entries for FAT12/16 (2) */
 443:Middlewares/Third_Party/FatFs/src/ff.c **** #define BPB_TotSec16		19		/* Volume size [sector] (2) */
 444:Middlewares/Third_Party/FatFs/src/ff.c **** #define BPB_Media			21		/* Media descriptor (1) */
 445:Middlewares/Third_Party/FatFs/src/ff.c **** #define BPB_FATSz16			22		/* FAT size [sector] (2) */
 446:Middlewares/Third_Party/FatFs/src/ff.c **** #define BPB_SecPerTrk		24		/* Track size [sector] (2) */
 447:Middlewares/Third_Party/FatFs/src/ff.c **** #define BPB_NumHeads		26		/* Number of heads (2) */
 448:Middlewares/Third_Party/FatFs/src/ff.c **** #define BPB_HiddSec			28		/* Number of special hidden sectors (4) */
 449:Middlewares/Third_Party/FatFs/src/ff.c **** #define BPB_TotSec32		32		/* Volume size [sector] (4) */
 450:Middlewares/Third_Party/FatFs/src/ff.c **** #define BS_DrvNum			36		/* Physical drive number (2) */
 451:Middlewares/Third_Party/FatFs/src/ff.c **** #define BS_BootSig			38		/* Extended boot signature (1) */
 452:Middlewares/Third_Party/FatFs/src/ff.c **** #define BS_VolID			39		/* Volume serial number (4) */
 453:Middlewares/Third_Party/FatFs/src/ff.c **** #define BS_VolLab			43		/* Volume label (8) */
 454:Middlewares/Third_Party/FatFs/src/ff.c **** #define BS_FilSysType		54		/* File system type (1) */
 455:Middlewares/Third_Party/FatFs/src/ff.c **** #define BPB_FATSz32			36		/* FAT size [sector] (4) */
 456:Middlewares/Third_Party/FatFs/src/ff.c **** #define BPB_ExtFlags		40		/* Extended flags (2) */
 457:Middlewares/Third_Party/FatFs/src/ff.c **** #define BPB_FSVer			42		/* File system version (2) */
 458:Middlewares/Third_Party/FatFs/src/ff.c **** #define BPB_RootClus		44		/* Root directory first cluster (4) */
 459:Middlewares/Third_Party/FatFs/src/ff.c **** #define BPB_FSInfo			48		/* Offset of FSINFO sector (2) */
 460:Middlewares/Third_Party/FatFs/src/ff.c **** #define BPB_BkBootSec		50		/* Offset of backup boot sector (2) */
 461:Middlewares/Third_Party/FatFs/src/ff.c **** #define BS_DrvNum32			64		/* Physical drive number (2) */
 462:Middlewares/Third_Party/FatFs/src/ff.c **** #define BS_BootSig32		66		/* Extended boot signature (1) */
 463:Middlewares/Third_Party/FatFs/src/ff.c **** #define BS_VolID32			67		/* Volume serial number (4) */
 464:Middlewares/Third_Party/FatFs/src/ff.c **** #define BS_VolLab32			71		/* Volume label (8) */
 465:Middlewares/Third_Party/FatFs/src/ff.c **** #define BS_FilSysType32		82		/* File system type (1) */
 466:Middlewares/Third_Party/FatFs/src/ff.c **** #define	FSI_LeadSig			0		/* FSI: Leading signature (4) */
 467:Middlewares/Third_Party/FatFs/src/ff.c **** #define	FSI_StrucSig		484		/* FSI: Structure signature (4) */
 468:Middlewares/Third_Party/FatFs/src/ff.c **** #define	FSI_Free_Count		488		/* FSI: Number of free clusters (4) */
 469:Middlewares/Third_Party/FatFs/src/ff.c **** #define	FSI_Nxt_Free		492		/* FSI: Last allocated cluster (4) */
 470:Middlewares/Third_Party/FatFs/src/ff.c **** #define MBR_Table			446		/* MBR: Partition table offset (2) */
 471:Middlewares/Third_Party/FatFs/src/ff.c **** #define	SZ_PTE				16		/* MBR: Size of a partition table entry */
 472:Middlewares/Third_Party/FatFs/src/ff.c **** #define BS_55AA				510		/* Signature word (2) */
 473:Middlewares/Third_Party/FatFs/src/ff.c **** 
 474:Middlewares/Third_Party/FatFs/src/ff.c **** #define	DIR_Name			0		/* Short file name (11) */
 475:Middlewares/Third_Party/FatFs/src/ff.c **** #define	DIR_Attr			11		/* Attribute (1) */
 476:Middlewares/Third_Party/FatFs/src/ff.c **** #define	DIR_NTres			12		/* Lower case flag (1) */
 477:Middlewares/Third_Party/FatFs/src/ff.c **** #define DIR_CrtTimeTenth	13		/* Created time sub-second (1) */
 478:Middlewares/Third_Party/FatFs/src/ff.c **** #define	DIR_CrtTime			14		/* Created time (2) */
 479:Middlewares/Third_Party/FatFs/src/ff.c **** #define	DIR_CrtDate			16		/* Created date (2) */
 480:Middlewares/Third_Party/FatFs/src/ff.c **** #define DIR_LstAccDate		18		/* Last accessed date (2) */
 481:Middlewares/Third_Party/FatFs/src/ff.c **** #define	DIR_FstClusHI		20		/* Higher 16-bit of first cluster (2) */
 482:Middlewares/Third_Party/FatFs/src/ff.c **** #define	DIR_WrtTime			22		/* Modified time (2) */
 483:Middlewares/Third_Party/FatFs/src/ff.c **** #define	DIR_WrtDate			24		/* Modified date (2) */
 484:Middlewares/Third_Party/FatFs/src/ff.c **** #define	DIR_FstClusLO		26		/* Lower 16-bit of first cluster (2) */
 485:Middlewares/Third_Party/FatFs/src/ff.c **** #define	DIR_FileSize		28		/* File size (4) */
 486:Middlewares/Third_Party/FatFs/src/ff.c **** #define	LDIR_Ord			0		/* LFN entry order and LLE flag (1) */
 487:Middlewares/Third_Party/FatFs/src/ff.c **** #define	LDIR_Attr			11		/* LFN attribute (1) */
 488:Middlewares/Third_Party/FatFs/src/ff.c **** #define	LDIR_Type			12		/* LFN type (1) */
ARM GAS  /tmp/cciFFPmJ.s 			page 10


 489:Middlewares/Third_Party/FatFs/src/ff.c **** #define	LDIR_Chksum			13		/* Sum of corresponding SFN entry */
 490:Middlewares/Third_Party/FatFs/src/ff.c **** #define	LDIR_FstClusLO		26		/* Must be zero (0) */
 491:Middlewares/Third_Party/FatFs/src/ff.c **** #define	SZ_DIRE				32		/* Size of a directory entry */
 492:Middlewares/Third_Party/FatFs/src/ff.c **** #define	LLEF				0x40	/* Last long entry flag in LDIR_Ord */
 493:Middlewares/Third_Party/FatFs/src/ff.c **** #define	DDEM				0xE5	/* Deleted directory entry mark at DIR_Name[0] */
 494:Middlewares/Third_Party/FatFs/src/ff.c **** #define	RDDEM				0x05	/* Replacement of the character collides with DDEM */
 495:Middlewares/Third_Party/FatFs/src/ff.c **** 
 496:Middlewares/Third_Party/FatFs/src/ff.c **** 
 497:Middlewares/Third_Party/FatFs/src/ff.c **** 
 498:Middlewares/Third_Party/FatFs/src/ff.c **** 
 499:Middlewares/Third_Party/FatFs/src/ff.c **** /*------------------------------------------------------------*/
 500:Middlewares/Third_Party/FatFs/src/ff.c **** /* Module private work area                                   */
 501:Middlewares/Third_Party/FatFs/src/ff.c **** /*------------------------------------------------------------*/
 502:Middlewares/Third_Party/FatFs/src/ff.c **** /* Remark: Uninitialized variables with static duration are
 503:Middlewares/Third_Party/FatFs/src/ff.c **** /  guaranteed zero/null at start-up. If not, either the linker
 504:Middlewares/Third_Party/FatFs/src/ff.c **** /  or start-up routine being used is out of ANSI-C standard.
 505:Middlewares/Third_Party/FatFs/src/ff.c **** */
 506:Middlewares/Third_Party/FatFs/src/ff.c **** 
 507:Middlewares/Third_Party/FatFs/src/ff.c **** #if _VOLUMES < 1 || _VOLUMES > 9
 508:Middlewares/Third_Party/FatFs/src/ff.c **** #error Wrong _VOLUMES setting
 509:Middlewares/Third_Party/FatFs/src/ff.c **** #endif
 510:Middlewares/Third_Party/FatFs/src/ff.c **** static FATFS *FatFs[_VOLUMES];	/* Pointer to the file system objects (logical drives) */
 511:Middlewares/Third_Party/FatFs/src/ff.c **** static WORD Fsid;				/* File system mount ID */
 512:Middlewares/Third_Party/FatFs/src/ff.c **** 
 513:Middlewares/Third_Party/FatFs/src/ff.c **** #if _FS_RPATH && _VOLUMES >= 2
 514:Middlewares/Third_Party/FatFs/src/ff.c **** static BYTE CurrVol;			/* Current drive */
 515:Middlewares/Third_Party/FatFs/src/ff.c **** #endif
 516:Middlewares/Third_Party/FatFs/src/ff.c **** 
 517:Middlewares/Third_Party/FatFs/src/ff.c **** #if _FS_LOCK
 518:Middlewares/Third_Party/FatFs/src/ff.c **** static FILESEM Files[_FS_LOCK];	/* Open object lock semaphores */
 519:Middlewares/Third_Party/FatFs/src/ff.c **** #endif
 520:Middlewares/Third_Party/FatFs/src/ff.c **** 
 521:Middlewares/Third_Party/FatFs/src/ff.c **** #if _USE_LFN == 0			/* Non LFN feature */
 522:Middlewares/Third_Party/FatFs/src/ff.c **** #define	DEFINE_NAMEBUF		BYTE sfn[12]
 523:Middlewares/Third_Party/FatFs/src/ff.c **** #define INIT_BUF(dobj)		(dobj).fn = sfn
 524:Middlewares/Third_Party/FatFs/src/ff.c **** #define	FREE_BUF()
 525:Middlewares/Third_Party/FatFs/src/ff.c **** #else
 526:Middlewares/Third_Party/FatFs/src/ff.c **** #if _MAX_LFN < 12 || _MAX_LFN > 255
 527:Middlewares/Third_Party/FatFs/src/ff.c **** #error Wrong _MAX_LFN setting
 528:Middlewares/Third_Party/FatFs/src/ff.c **** #endif
 529:Middlewares/Third_Party/FatFs/src/ff.c **** #if _USE_LFN == 1			/* LFN feature with static working buffer */
 530:Middlewares/Third_Party/FatFs/src/ff.c **** static WCHAR LfnBuf[_MAX_LFN + 1];
 531:Middlewares/Third_Party/FatFs/src/ff.c **** #define	DEFINE_NAMEBUF		BYTE sfn[12]
 532:Middlewares/Third_Party/FatFs/src/ff.c **** #define INIT_BUF(dobj)		{ (dobj).fn = sfn; (dobj).lfn = LfnBuf; }
 533:Middlewares/Third_Party/FatFs/src/ff.c **** #define	FREE_BUF()
 534:Middlewares/Third_Party/FatFs/src/ff.c **** #elif _USE_LFN == 2 		/* LFN feature with dynamic working buffer on the stack */
 535:Middlewares/Third_Party/FatFs/src/ff.c **** #define	DEFINE_NAMEBUF		BYTE sfn[12]; WCHAR lbuf[_MAX_LFN + 1]
 536:Middlewares/Third_Party/FatFs/src/ff.c **** #define INIT_BUF(dobj)		{ (dobj).fn = sfn; (dobj).lfn = lbuf; }
 537:Middlewares/Third_Party/FatFs/src/ff.c **** #define	FREE_BUF()
 538:Middlewares/Third_Party/FatFs/src/ff.c **** #elif _USE_LFN == 3 		/* LFN feature with dynamic working buffer on the heap */
 539:Middlewares/Third_Party/FatFs/src/ff.c **** #define	DEFINE_NAMEBUF		BYTE sfn[12]; WCHAR *lfn
 540:Middlewares/Third_Party/FatFs/src/ff.c **** #define INIT_BUF(dobj)		{ lfn = ff_memalloc((_MAX_LFN + 1) * 2); if (!lfn) LEAVE_FF((dobj).fs, FR_N
 541:Middlewares/Third_Party/FatFs/src/ff.c **** #define	FREE_BUF()			ff_memfree(lfn)
 542:Middlewares/Third_Party/FatFs/src/ff.c **** #else
 543:Middlewares/Third_Party/FatFs/src/ff.c **** #error Wrong _USE_LFN setting
 544:Middlewares/Third_Party/FatFs/src/ff.c **** #endif
 545:Middlewares/Third_Party/FatFs/src/ff.c **** #endif
ARM GAS  /tmp/cciFFPmJ.s 			page 11


 546:Middlewares/Third_Party/FatFs/src/ff.c **** 
 547:Middlewares/Third_Party/FatFs/src/ff.c **** #ifdef _EXCVT
 548:Middlewares/Third_Party/FatFs/src/ff.c **** static const BYTE ExCvt[] = _EXCVT;	/* Upper conversion table for extended characters */
 549:Middlewares/Third_Party/FatFs/src/ff.c **** #endif
 550:Middlewares/Third_Party/FatFs/src/ff.c **** 
 551:Middlewares/Third_Party/FatFs/src/ff.c **** 
 552:Middlewares/Third_Party/FatFs/src/ff.c **** 
 553:Middlewares/Third_Party/FatFs/src/ff.c **** 
 554:Middlewares/Third_Party/FatFs/src/ff.c **** 
 555:Middlewares/Third_Party/FatFs/src/ff.c **** 
 556:Middlewares/Third_Party/FatFs/src/ff.c **** /*--------------------------------------------------------------------------
 557:Middlewares/Third_Party/FatFs/src/ff.c **** 
 558:Middlewares/Third_Party/FatFs/src/ff.c ****    Module Private Functions
 559:Middlewares/Third_Party/FatFs/src/ff.c **** 
 560:Middlewares/Third_Party/FatFs/src/ff.c **** ---------------------------------------------------------------------------*/
 561:Middlewares/Third_Party/FatFs/src/ff.c **** DWORD clust2sect (FATFS* fs, DWORD clst);
 562:Middlewares/Third_Party/FatFs/src/ff.c **** DWORD get_fat (FATFS* fs,	DWORD clst);
 563:Middlewares/Third_Party/FatFs/src/ff.c **** 
 564:Middlewares/Third_Party/FatFs/src/ff.c **** #if !_FS_READONLY
 565:Middlewares/Third_Party/FatFs/src/ff.c **** FRESULT put_fat (FATFS* fs,	DWORD clst,	DWORD val);
 566:Middlewares/Third_Party/FatFs/src/ff.c **** #endif /* !_FS_READONLY */
 567:Middlewares/Third_Party/FatFs/src/ff.c **** 
 568:Middlewares/Third_Party/FatFs/src/ff.c **** #if _USE_LFN
 569:Middlewares/Third_Party/FatFs/src/ff.c **** static void gen_numname (BYTE* dst, const BYTE* src, const WCHAR* lfn, UINT seq);
 570:Middlewares/Third_Party/FatFs/src/ff.c **** #endif /* !_USE_LFN */
 571:Middlewares/Third_Party/FatFs/src/ff.c **** 
 572:Middlewares/Third_Party/FatFs/src/ff.c **** 
 573:Middlewares/Third_Party/FatFs/src/ff.c **** 
 574:Middlewares/Third_Party/FatFs/src/ff.c **** /*-----------------------------------------------------------------------*/
 575:Middlewares/Third_Party/FatFs/src/ff.c **** /* String functions                                                      */
 576:Middlewares/Third_Party/FatFs/src/ff.c **** /*-----------------------------------------------------------------------*/
 577:Middlewares/Third_Party/FatFs/src/ff.c **** 
 578:Middlewares/Third_Party/FatFs/src/ff.c **** /* Copy memory to memory */
 579:Middlewares/Third_Party/FatFs/src/ff.c **** static
 580:Middlewares/Third_Party/FatFs/src/ff.c **** void mem_cpy (void* dst, const void* src, UINT cnt) {
  27              		.loc 1 580 53 view -0
  28              		.cfi_startproc
  29              		@ args = 0, pretend = 0, frame = 0
  30              		@ frame_needed = 0, uses_anonymous_args = 0
  31              		@ link register save eliminated.
 581:Middlewares/Third_Party/FatFs/src/ff.c **** 	BYTE *d = (BYTE*)dst;
  32              		.loc 1 581 2 view .LVU1
 582:Middlewares/Third_Party/FatFs/src/ff.c **** 	const BYTE *s = (const BYTE*)src;
  33              		.loc 1 582 2 view .LVU2
 583:Middlewares/Third_Party/FatFs/src/ff.c **** 
 584:Middlewares/Third_Party/FatFs/src/ff.c **** #if _WORD_ACCESS == 1
 585:Middlewares/Third_Party/FatFs/src/ff.c **** 	while (cnt >= sizeof (int)) {
 586:Middlewares/Third_Party/FatFs/src/ff.c **** 		*(int*)d = *(int*)s;
 587:Middlewares/Third_Party/FatFs/src/ff.c **** 		d += sizeof (int); s += sizeof (int);
 588:Middlewares/Third_Party/FatFs/src/ff.c **** 		cnt -= sizeof (int);
 589:Middlewares/Third_Party/FatFs/src/ff.c **** 	}
 590:Middlewares/Third_Party/FatFs/src/ff.c **** #endif
 591:Middlewares/Third_Party/FatFs/src/ff.c **** 	while (cnt--)
  34              		.loc 1 591 2 view .LVU3
  35              	.L2:
  36              		.loc 1 591 8 view .LVU4
  37              		.loc 1 591 12 is_stmt 0 view .LVU5
ARM GAS  /tmp/cciFFPmJ.s 			page 12


  38 0000 531E     		subs	r3, r2, #1
  39              	.LVL1:
  40              		.loc 1 591 8 view .LVU6
  41 0002 2AB1     		cbz	r2, .L4
 592:Middlewares/Third_Party/FatFs/src/ff.c **** 		*d++ = *s++;
  42              		.loc 1 592 3 is_stmt 1 view .LVU7
  43              	.LVL2:
  44              		.loc 1 592 10 is_stmt 0 view .LVU8
  45 0004 11F8012B 		ldrb	r2, [r1], #1	@ zero_extendqisi2
  46              	.LVL3:
  47              		.loc 1 592 8 view .LVU9
  48 0008 00F8012B 		strb	r2, [r0], #1
  49              	.LVL4:
 591:Middlewares/Third_Party/FatFs/src/ff.c **** 		*d++ = *s++;
  50              		.loc 1 591 12 view .LVU10
  51 000c 1A46     		mov	r2, r3
  52 000e F7E7     		b	.L2
  53              	.L4:
 593:Middlewares/Third_Party/FatFs/src/ff.c **** }
  54              		.loc 1 593 1 view .LVU11
  55 0010 7047     		bx	lr
  56              		.cfi_endproc
  57              	.LFE65:
  59              		.section	.text.mem_set,"ax",%progbits
  60              		.align	1
  61              		.syntax unified
  62              		.thumb
  63              		.thumb_func
  64              		.fpu softvfp
  66              	mem_set:
  67              	.LVL5:
  68              	.LFB66:
 594:Middlewares/Third_Party/FatFs/src/ff.c **** 
 595:Middlewares/Third_Party/FatFs/src/ff.c **** /* Fill memory */
 596:Middlewares/Third_Party/FatFs/src/ff.c **** static
 597:Middlewares/Third_Party/FatFs/src/ff.c **** void mem_set (void* dst, int val, UINT cnt) {
  69              		.loc 1 597 45 is_stmt 1 view -0
  70              		.cfi_startproc
  71              		@ args = 0, pretend = 0, frame = 0
  72              		@ frame_needed = 0, uses_anonymous_args = 0
  73              		@ link register save eliminated.
 598:Middlewares/Third_Party/FatFs/src/ff.c **** 	BYTE *d = (BYTE*)dst;
  74              		.loc 1 598 2 view .LVU13
 599:Middlewares/Third_Party/FatFs/src/ff.c **** 
 600:Middlewares/Third_Party/FatFs/src/ff.c **** 	while (cnt--)
  75              		.loc 1 600 2 view .LVU14
  76              	.L6:
  77              		.loc 1 600 8 view .LVU15
  78              		.loc 1 600 12 is_stmt 0 view .LVU16
  79 0000 531E     		subs	r3, r2, #1
  80              	.LVL6:
  81              		.loc 1 600 8 view .LVU17
  82 0002 1AB1     		cbz	r2, .L8
 601:Middlewares/Third_Party/FatFs/src/ff.c **** 		*d++ = (BYTE)val;
  83              		.loc 1 601 3 is_stmt 1 view .LVU18
  84              	.LVL7:
  85              		.loc 1 601 8 is_stmt 0 view .LVU19
ARM GAS  /tmp/cciFFPmJ.s 			page 13


  86 0004 00F8011B 		strb	r1, [r0], #1
  87              	.LVL8:
 600:Middlewares/Third_Party/FatFs/src/ff.c **** 		*d++ = (BYTE)val;
  88              		.loc 1 600 12 view .LVU20
  89 0008 1A46     		mov	r2, r3
  90 000a F9E7     		b	.L6
  91              	.L8:
 602:Middlewares/Third_Party/FatFs/src/ff.c **** }
  92              		.loc 1 602 1 view .LVU21
  93 000c 7047     		bx	lr
  94              		.cfi_endproc
  95              	.LFE66:
  97              		.section	.text.mem_cmp,"ax",%progbits
  98              		.align	1
  99              		.syntax unified
 100              		.thumb
 101              		.thumb_func
 102              		.fpu softvfp
 104              	mem_cmp:
 105              	.LVL9:
 106              	.LFB67:
 603:Middlewares/Third_Party/FatFs/src/ff.c **** 
 604:Middlewares/Third_Party/FatFs/src/ff.c **** /* Compare memory to memory */
 605:Middlewares/Third_Party/FatFs/src/ff.c **** static
 606:Middlewares/Third_Party/FatFs/src/ff.c **** int mem_cmp (const void* dst, const void* src, UINT cnt) {
 107              		.loc 1 606 58 is_stmt 1 view -0
 108              		.cfi_startproc
 109              		@ args = 0, pretend = 0, frame = 0
 110              		@ frame_needed = 0, uses_anonymous_args = 0
 111              		@ link register save eliminated.
 112              		.loc 1 606 58 is_stmt 0 view .LVU23
 113 0000 10B4     		push	{r4}
 114              	.LCFI0:
 115              		.cfi_def_cfa_offset 4
 116              		.cfi_offset 4, -4
 117 0002 0346     		mov	r3, r0
 607:Middlewares/Third_Party/FatFs/src/ff.c **** 	const BYTE *d = (const BYTE *)dst, *s = (const BYTE *)src;
 118              		.loc 1 607 2 is_stmt 1 view .LVU24
 119              	.LVL10:
 608:Middlewares/Third_Party/FatFs/src/ff.c **** 	int r = 0;
 120              		.loc 1 608 2 view .LVU25
 609:Middlewares/Third_Party/FatFs/src/ff.c **** 
 610:Middlewares/Third_Party/FatFs/src/ff.c **** 	while (cnt-- && (r = *d++ - *s++) == 0) ;
 121              		.loc 1 610 2 view .LVU26
 608:Middlewares/Third_Party/FatFs/src/ff.c **** 	int r = 0;
 122              		.loc 1 608 6 is_stmt 0 view .LVU27
 123 0004 0020     		movs	r0, #0
 124              	.LVL11:
 125              	.L11:
 126              		.loc 1 610 42 is_stmt 1 discriminator 2 view .LVU28
 127              		.loc 1 610 8 discriminator 2 view .LVU29
 128 0006 1446     		mov	r4, r2
 129              		.loc 1 610 12 is_stmt 0 discriminator 2 view .LVU30
 130 0008 013A     		subs	r2, r2, #1
 131              	.LVL12:
 132              		.loc 1 610 8 discriminator 2 view .LVU31
 133 000a 2CB1     		cbz	r4, .L9
ARM GAS  /tmp/cciFFPmJ.s 			page 14


 134              	.LVL13:
 135              		.loc 1 610 23 discriminator 1 view .LVU32
 136 000c 13F8010B 		ldrb	r0, [r3], #1	@ zero_extendqisi2
 137              	.LVL14:
 138              		.loc 1 610 30 discriminator 1 view .LVU33
 139 0010 11F8014B 		ldrb	r4, [r1], #1	@ zero_extendqisi2
 140              	.LVL15:
 141              		.loc 1 610 15 discriminator 1 view .LVU34
 142 0014 001B     		subs	r0, r0, r4
 143              	.LVL16:
 144              		.loc 1 610 15 discriminator 1 view .LVU35
 145 0016 F6D0     		beq	.L11
 146              	.LVL17:
 147              	.L9:
 611:Middlewares/Third_Party/FatFs/src/ff.c **** 	return r;
 612:Middlewares/Third_Party/FatFs/src/ff.c **** }
 148              		.loc 1 612 1 view .LVU36
 149 0018 10BC     		pop	{r4}
 150              	.LCFI1:
 151              		.cfi_restore 4
 152              		.cfi_def_cfa_offset 0
 153 001a 7047     		bx	lr
 154              		.cfi_endproc
 155              	.LFE67:
 157              		.section	.text.chk_chr,"ax",%progbits
 158              		.align	1
 159              		.syntax unified
 160              		.thumb
 161              		.thumb_func
 162              		.fpu softvfp
 164              	chk_chr:
 165              	.LVL18:
 166              	.LFB68:
 613:Middlewares/Third_Party/FatFs/src/ff.c **** 
 614:Middlewares/Third_Party/FatFs/src/ff.c **** /* Check if chr is contained in the string */
 615:Middlewares/Third_Party/FatFs/src/ff.c **** static
 616:Middlewares/Third_Party/FatFs/src/ff.c **** int chk_chr (const char* str, int chr) {
 167              		.loc 1 616 40 is_stmt 1 view -0
 168              		.cfi_startproc
 169              		@ args = 0, pretend = 0, frame = 0
 170              		@ frame_needed = 0, uses_anonymous_args = 0
 171              		@ link register save eliminated.
 172              		.loc 1 616 40 is_stmt 0 view .LVU38
 173 0000 0346     		mov	r3, r0
 617:Middlewares/Third_Party/FatFs/src/ff.c **** 	while (*str && *str != chr) str++;
 174              		.loc 1 617 2 is_stmt 1 view .LVU39
 175              	.LVL19:
 176              	.L15:
 177              		.loc 1 617 8 discriminator 1 view .LVU40
 178              		.loc 1 617 9 is_stmt 0 discriminator 1 view .LVU41
 179 0002 1878     		ldrb	r0, [r3]	@ zero_extendqisi2
 180              		.loc 1 617 8 discriminator 1 view .LVU42
 181 0004 18B1     		cbz	r0, .L16
 182              		.loc 1 617 14 discriminator 2 view .LVU43
 183 0006 8842     		cmp	r0, r1
 184 0008 01D0     		beq	.L16
 185              		.loc 1 617 30 is_stmt 1 discriminator 3 view .LVU44
ARM GAS  /tmp/cciFFPmJ.s 			page 15


 186              		.loc 1 617 33 is_stmt 0 discriminator 3 view .LVU45
 187 000a 0133     		adds	r3, r3, #1
 188              	.LVL20:
 189              		.loc 1 617 33 discriminator 3 view .LVU46
 190 000c F9E7     		b	.L15
 191              	.L16:
 618:Middlewares/Third_Party/FatFs/src/ff.c **** 	return *str;
 192              		.loc 1 618 2 is_stmt 1 view .LVU47
 619:Middlewares/Third_Party/FatFs/src/ff.c **** }
 193              		.loc 1 619 1 is_stmt 0 view .LVU48
 194 000e 7047     		bx	lr
 195              		.cfi_endproc
 196              	.LFE68:
 198              		.section	.text.chk_lock,"ax",%progbits
 199              		.align	1
 200              		.syntax unified
 201              		.thumb
 202              		.thumb_func
 203              		.fpu softvfp
 205              	chk_lock:
 206              	.LVL21:
 207              	.LFB69:
 620:Middlewares/Third_Party/FatFs/src/ff.c **** 
 621:Middlewares/Third_Party/FatFs/src/ff.c **** 
 622:Middlewares/Third_Party/FatFs/src/ff.c **** 
 623:Middlewares/Third_Party/FatFs/src/ff.c **** 
 624:Middlewares/Third_Party/FatFs/src/ff.c **** /*-----------------------------------------------------------------------*/
 625:Middlewares/Third_Party/FatFs/src/ff.c **** /* Request/Release grant to access the volume                            */
 626:Middlewares/Third_Party/FatFs/src/ff.c **** /*-----------------------------------------------------------------------*/
 627:Middlewares/Third_Party/FatFs/src/ff.c **** #if _FS_REENTRANT
 628:Middlewares/Third_Party/FatFs/src/ff.c **** static
 629:Middlewares/Third_Party/FatFs/src/ff.c **** int lock_fs (
 630:Middlewares/Third_Party/FatFs/src/ff.c **** 	FATFS* fs		/* File system object */
 631:Middlewares/Third_Party/FatFs/src/ff.c **** )
 632:Middlewares/Third_Party/FatFs/src/ff.c **** {
 633:Middlewares/Third_Party/FatFs/src/ff.c **** 	return ff_req_grant(fs->sobj);
 634:Middlewares/Third_Party/FatFs/src/ff.c **** }
 635:Middlewares/Third_Party/FatFs/src/ff.c **** 
 636:Middlewares/Third_Party/FatFs/src/ff.c **** 
 637:Middlewares/Third_Party/FatFs/src/ff.c **** static
 638:Middlewares/Third_Party/FatFs/src/ff.c **** void unlock_fs (
 639:Middlewares/Third_Party/FatFs/src/ff.c **** 	FATFS* fs,		/* File system object */
 640:Middlewares/Third_Party/FatFs/src/ff.c **** 	FRESULT res		/* Result code to be returned */
 641:Middlewares/Third_Party/FatFs/src/ff.c **** )
 642:Middlewares/Third_Party/FatFs/src/ff.c **** {
 643:Middlewares/Third_Party/FatFs/src/ff.c **** 	if (fs &&
 644:Middlewares/Third_Party/FatFs/src/ff.c **** 		res != FR_NOT_ENABLED &&
 645:Middlewares/Third_Party/FatFs/src/ff.c **** 		res != FR_INVALID_DRIVE &&
 646:Middlewares/Third_Party/FatFs/src/ff.c **** 		res != FR_INVALID_OBJECT &&
 647:Middlewares/Third_Party/FatFs/src/ff.c **** 		res != FR_TIMEOUT) {
 648:Middlewares/Third_Party/FatFs/src/ff.c **** 		ff_rel_grant(fs->sobj);
 649:Middlewares/Third_Party/FatFs/src/ff.c **** 	}
 650:Middlewares/Third_Party/FatFs/src/ff.c **** }
 651:Middlewares/Third_Party/FatFs/src/ff.c **** #endif
 652:Middlewares/Third_Party/FatFs/src/ff.c **** 
 653:Middlewares/Third_Party/FatFs/src/ff.c **** 
 654:Middlewares/Third_Party/FatFs/src/ff.c **** 
ARM GAS  /tmp/cciFFPmJ.s 			page 16


 655:Middlewares/Third_Party/FatFs/src/ff.c **** 
 656:Middlewares/Third_Party/FatFs/src/ff.c **** /*-----------------------------------------------------------------------*/
 657:Middlewares/Third_Party/FatFs/src/ff.c **** /* File lock control functions                                           */
 658:Middlewares/Third_Party/FatFs/src/ff.c **** /*-----------------------------------------------------------------------*/
 659:Middlewares/Third_Party/FatFs/src/ff.c **** #if _FS_LOCK
 660:Middlewares/Third_Party/FatFs/src/ff.c **** 
 661:Middlewares/Third_Party/FatFs/src/ff.c **** static
 662:Middlewares/Third_Party/FatFs/src/ff.c **** FRESULT chk_lock (	/* Check if the file can be accessed */
 663:Middlewares/Third_Party/FatFs/src/ff.c **** 	DIR* dp,		/* Directory object pointing the file to be checked */
 664:Middlewares/Third_Party/FatFs/src/ff.c **** 	int acc			/* Desired access type (0:Read, 1:Write, 2:Delete/Rename) */
 665:Middlewares/Third_Party/FatFs/src/ff.c **** )
 666:Middlewares/Third_Party/FatFs/src/ff.c **** {
 208              		.loc 1 666 1 is_stmt 1 view -0
 209              		.cfi_startproc
 210              		@ args = 0, pretend = 0, frame = 0
 211              		@ frame_needed = 0, uses_anonymous_args = 0
 212              		@ link register save eliminated.
 213              		.loc 1 666 1 is_stmt 0 view .LVU50
 214 0000 30B4     		push	{r4, r5}
 215              	.LCFI2:
 216              		.cfi_def_cfa_offset 8
 217              		.cfi_offset 4, -8
 218              		.cfi_offset 5, -4
 667:Middlewares/Third_Party/FatFs/src/ff.c **** 	UINT i, be;
 219              		.loc 1 667 2 is_stmt 1 view .LVU51
 668:Middlewares/Third_Party/FatFs/src/ff.c **** 
 669:Middlewares/Third_Party/FatFs/src/ff.c **** 	/* Search file semaphore table */
 670:Middlewares/Third_Party/FatFs/src/ff.c **** 	for (i = be = 0; i < _FS_LOCK; i++) {
 220              		.loc 1 670 2 view .LVU52
 221              	.LVL22:
 222              		.loc 1 670 14 is_stmt 0 view .LVU53
 223 0002 0025     		movs	r5, #0
 224              		.loc 1 670 9 view .LVU54
 225 0004 2B46     		mov	r3, r5
 226              		.loc 1 670 2 view .LVU55
 227 0006 01E0     		b	.L19
 228              	.LVL23:
 229              	.L26:
 671:Middlewares/Third_Party/FatFs/src/ff.c **** 		if (Files[i].fs) {	/* Existing entry */
 672:Middlewares/Third_Party/FatFs/src/ff.c **** 			if (Files[i].fs == dp->fs &&	 	/* Check if the object matched with an open object */
 673:Middlewares/Third_Party/FatFs/src/ff.c **** 				Files[i].clu == dp->sclust &&
 674:Middlewares/Third_Party/FatFs/src/ff.c **** 				Files[i].idx == dp->index) break;
 675:Middlewares/Third_Party/FatFs/src/ff.c **** 		} else {			/* Blank entry */
 676:Middlewares/Third_Party/FatFs/src/ff.c **** 			be = 1;
 230              		.loc 1 676 7 view .LVU56
 231 0008 0125     		movs	r5, #1
 232              	.LVL24:
 233              	.L20:
 670:Middlewares/Third_Party/FatFs/src/ff.c **** 		if (Files[i].fs) {	/* Existing entry */
 234              		.loc 1 670 33 is_stmt 1 discriminator 2 view .LVU57
 670:Middlewares/Third_Party/FatFs/src/ff.c **** 		if (Files[i].fs) {	/* Existing entry */
 235              		.loc 1 670 34 is_stmt 0 discriminator 2 view .LVU58
 236 000a 0133     		adds	r3, r3, #1
 237              	.LVL25:
 238              	.L19:
 670:Middlewares/Third_Party/FatFs/src/ff.c **** 		if (Files[i].fs) {	/* Existing entry */
 239              		.loc 1 670 19 is_stmt 1 discriminator 1 view .LVU59
ARM GAS  /tmp/cciFFPmJ.s 			page 17


 670:Middlewares/Third_Party/FatFs/src/ff.c **** 		if (Files[i].fs) {	/* Existing entry */
 240              		.loc 1 670 2 is_stmt 0 discriminator 1 view .LVU60
 241 000c 012B     		cmp	r3, #1
 242 000e 1ED8     		bhi	.L21
 671:Middlewares/Third_Party/FatFs/src/ff.c **** 		if (Files[i].fs) {	/* Existing entry */
 243              		.loc 1 671 3 is_stmt 1 view .LVU61
 671:Middlewares/Third_Party/FatFs/src/ff.c **** 		if (Files[i].fs) {	/* Existing entry */
 244              		.loc 1 671 15 is_stmt 0 view .LVU62
 245 0010 03EB4302 		add	r2, r3, r3, lsl #1
 246 0014 1C4C     		ldr	r4, .L35
 247 0016 54F82220 		ldr	r2, [r4, r2, lsl #2]
 671:Middlewares/Third_Party/FatFs/src/ff.c **** 		if (Files[i].fs) {	/* Existing entry */
 248              		.loc 1 671 6 view .LVU63
 249 001a 002A     		cmp	r2, #0
 250 001c F4D0     		beq	.L26
 672:Middlewares/Third_Party/FatFs/src/ff.c **** 				Files[i].clu == dp->sclust &&
 251              		.loc 1 672 4 is_stmt 1 view .LVU64
 672:Middlewares/Third_Party/FatFs/src/ff.c **** 				Files[i].clu == dp->sclust &&
 252              		.loc 1 672 25 is_stmt 0 view .LVU65
 253 001e D0F80042 		ldr	r4, [r0, #512]
 672:Middlewares/Third_Party/FatFs/src/ff.c **** 				Files[i].clu == dp->sclust &&
 254              		.loc 1 672 7 view .LVU66
 255 0022 A242     		cmp	r2, r4
 256 0024 F1D1     		bne	.L20
 673:Middlewares/Third_Party/FatFs/src/ff.c **** 				Files[i].idx == dp->index) break;
 257              		.loc 1 673 13 discriminator 1 view .LVU67
 258 0026 03EB4302 		add	r2, r3, r3, lsl #1
 259 002a 174C     		ldr	r4, .L35
 260 002c 04EB8202 		add	r2, r4, r2, lsl #2
 261 0030 5468     		ldr	r4, [r2, #4]
 673:Middlewares/Third_Party/FatFs/src/ff.c **** 				Files[i].idx == dp->index) break;
 262              		.loc 1 673 23 discriminator 1 view .LVU68
 263 0032 D0F80822 		ldr	r2, [r0, #520]
 672:Middlewares/Third_Party/FatFs/src/ff.c **** 				Files[i].clu == dp->sclust &&
 264              		.loc 1 672 30 discriminator 1 view .LVU69
 265 0036 9442     		cmp	r4, r2
 266 0038 E7D1     		bne	.L20
 674:Middlewares/Third_Party/FatFs/src/ff.c **** 		} else {			/* Blank entry */
 267              		.loc 1 674 13 view .LVU70
 268 003a 03EB4302 		add	r2, r3, r3, lsl #1
 269 003e 124C     		ldr	r4, .L35
 270 0040 04EB8202 		add	r2, r4, r2, lsl #2
 271 0044 1489     		ldrh	r4, [r2, #8]
 674:Middlewares/Third_Party/FatFs/src/ff.c **** 		} else {			/* Blank entry */
 272              		.loc 1 674 23 view .LVU71
 273 0046 B0F80622 		ldrh	r2, [r0, #518]
 673:Middlewares/Third_Party/FatFs/src/ff.c **** 				Files[i].idx == dp->index) break;
 274              		.loc 1 673 32 view .LVU72
 275 004a 9442     		cmp	r4, r2
 276 004c DDD1     		bne	.L20
 277              	.L21:
 677:Middlewares/Third_Party/FatFs/src/ff.c **** 		}
 678:Middlewares/Third_Party/FatFs/src/ff.c **** 	}
 679:Middlewares/Third_Party/FatFs/src/ff.c **** 	if (i == _FS_LOCK)	/* The object is not opened */
 278              		.loc 1 679 2 is_stmt 1 view .LVU73
 279              		.loc 1 679 5 is_stmt 0 view .LVU74
 280 004e 022B     		cmp	r3, #2
ARM GAS  /tmp/cciFFPmJ.s 			page 18


 281 0050 0CD0     		beq	.L32
 680:Middlewares/Third_Party/FatFs/src/ff.c **** 		return (be || acc == 2) ? FR_OK : FR_TOO_MANY_OPEN_FILES;	/* Is there a blank entry for new objec
 681:Middlewares/Third_Party/FatFs/src/ff.c **** 
 682:Middlewares/Third_Party/FatFs/src/ff.c **** 	/* The object has been opened. Reject any open against writing file and all write mode open */
 683:Middlewares/Third_Party/FatFs/src/ff.c **** 	return (acc || Files[i].ctr == 0x100) ? FR_LOCKED : FR_OK;
 282              		.loc 1 683 2 is_stmt 1 view .LVU75
 283              		.loc 1 683 52 is_stmt 0 view .LVU76
 284 0052 B1B9     		cbnz	r1, .L29
 285              		.loc 1 683 25 discriminator 2 view .LVU77
 286 0054 03EB4303 		add	r3, r3, r3, lsl #1
 287              	.LVL26:
 288              		.loc 1 683 25 discriminator 2 view .LVU78
 289 0058 0B4A     		ldr	r2, .L35
 290 005a 02EB8303 		add	r3, r2, r3, lsl #2
 291 005e 5B89     		ldrh	r3, [r3, #10]
 292              		.loc 1 683 14 discriminator 2 view .LVU79
 293 0060 B3F5807F 		cmp	r3, #256
 294 0064 0BD0     		beq	.L33
 295              		.loc 1 683 52 view .LVU80
 296 0066 0020     		movs	r0, #0
 297              	.LVL27:
 298              	.L25:
 684:Middlewares/Third_Party/FatFs/src/ff.c **** }
 299              		.loc 1 684 1 view .LVU81
 300 0068 30BC     		pop	{r4, r5}
 301              	.LCFI3:
 302              		.cfi_remember_state
 303              		.cfi_restore 5
 304              		.cfi_restore 4
 305              		.cfi_def_cfa_offset 0
 306              	.LVL28:
 307              		.loc 1 684 1 view .LVU82
 308 006a 7047     		bx	lr
 309              	.LVL29:
 310              	.L32:
 311              	.LCFI4:
 312              		.cfi_restore_state
 680:Middlewares/Third_Party/FatFs/src/ff.c **** 		return (be || acc == 2) ? FR_OK : FR_TOO_MANY_OPEN_FILES;	/* Is there a blank entry for new objec
 313              		.loc 1 680 3 is_stmt 1 view .LVU83
 680:Middlewares/Third_Party/FatFs/src/ff.c **** 		return (be || acc == 2) ? FR_OK : FR_TOO_MANY_OPEN_FILES;	/* Is there a blank entry for new objec
 314              		.loc 1 680 35 is_stmt 0 view .LVU84
 315 006c 2DB9     		cbnz	r5, .L27
 680:Middlewares/Third_Party/FatFs/src/ff.c **** 		return (be || acc == 2) ? FR_OK : FR_TOO_MANY_OPEN_FILES;	/* Is there a blank entry for new objec
 316              		.loc 1 680 14 discriminator 2 view .LVU85
 317 006e 0229     		cmp	r1, #2
 318 0070 01D0     		beq	.L34
 680:Middlewares/Third_Party/FatFs/src/ff.c **** 		return (be || acc == 2) ? FR_OK : FR_TOO_MANY_OPEN_FILES;	/* Is there a blank entry for new objec
 319              		.loc 1 680 35 view .LVU86
 320 0072 1220     		movs	r0, #18
 321              	.LVL30:
 680:Middlewares/Third_Party/FatFs/src/ff.c **** 		return (be || acc == 2) ? FR_OK : FR_TOO_MANY_OPEN_FILES;	/* Is there a blank entry for new objec
 322              		.loc 1 680 35 view .LVU87
 323 0074 F8E7     		b	.L25
 324              	.LVL31:
 325              	.L34:
 680:Middlewares/Third_Party/FatFs/src/ff.c **** 		return (be || acc == 2) ? FR_OK : FR_TOO_MANY_OPEN_FILES;	/* Is there a blank entry for new objec
 326              		.loc 1 680 35 view .LVU88
ARM GAS  /tmp/cciFFPmJ.s 			page 19


 327 0076 0020     		movs	r0, #0
 328              	.LVL32:
 680:Middlewares/Third_Party/FatFs/src/ff.c **** 		return (be || acc == 2) ? FR_OK : FR_TOO_MANY_OPEN_FILES;	/* Is there a blank entry for new objec
 329              		.loc 1 680 35 view .LVU89
 330 0078 F6E7     		b	.L25
 331              	.LVL33:
 332              	.L27:
 680:Middlewares/Third_Party/FatFs/src/ff.c **** 		return (be || acc == 2) ? FR_OK : FR_TOO_MANY_OPEN_FILES;	/* Is there a blank entry for new objec
 333              		.loc 1 680 35 view .LVU90
 334 007a 0020     		movs	r0, #0
 335              	.LVL34:
 680:Middlewares/Third_Party/FatFs/src/ff.c **** 		return (be || acc == 2) ? FR_OK : FR_TOO_MANY_OPEN_FILES;	/* Is there a blank entry for new objec
 336              		.loc 1 680 35 view .LVU91
 337 007c F4E7     		b	.L25
 338              	.LVL35:
 339              	.L33:
 683:Middlewares/Third_Party/FatFs/src/ff.c **** }
 340              		.loc 1 683 52 view .LVU92
 341 007e 1020     		movs	r0, #16
 342              	.LVL36:
 683:Middlewares/Third_Party/FatFs/src/ff.c **** }
 343              		.loc 1 683 52 view .LVU93
 344 0080 F2E7     		b	.L25
 345              	.LVL37:
 346              	.L29:
 683:Middlewares/Third_Party/FatFs/src/ff.c **** }
 347              		.loc 1 683 52 view .LVU94
 348 0082 1020     		movs	r0, #16
 349              	.LVL38:
 683:Middlewares/Third_Party/FatFs/src/ff.c **** }
 350              		.loc 1 683 52 view .LVU95
 351 0084 F0E7     		b	.L25
 352              	.L36:
 353 0086 00BF     		.align	2
 354              	.L35:
 355 0088 00000000 		.word	.LANCHOR0
 356              		.cfi_endproc
 357              	.LFE69:
 359              		.section	.text.enq_lock,"ax",%progbits
 360              		.align	1
 361              		.syntax unified
 362              		.thumb
 363              		.thumb_func
 364              		.fpu softvfp
 366              	enq_lock:
 367              	.LFB70:
 685:Middlewares/Third_Party/FatFs/src/ff.c **** 
 686:Middlewares/Third_Party/FatFs/src/ff.c **** 
 687:Middlewares/Third_Party/FatFs/src/ff.c **** static
 688:Middlewares/Third_Party/FatFs/src/ff.c **** int enq_lock (void)	/* Check if an entry is available for a new object */
 689:Middlewares/Third_Party/FatFs/src/ff.c **** {
 368              		.loc 1 689 1 is_stmt 1 view -0
 369              		.cfi_startproc
 370              		@ args = 0, pretend = 0, frame = 0
 371              		@ frame_needed = 0, uses_anonymous_args = 0
 372              		@ link register save eliminated.
 690:Middlewares/Third_Party/FatFs/src/ff.c **** 	UINT i;
ARM GAS  /tmp/cciFFPmJ.s 			page 20


 373              		.loc 1 690 2 view .LVU97
 691:Middlewares/Third_Party/FatFs/src/ff.c **** 
 692:Middlewares/Third_Party/FatFs/src/ff.c **** 	for (i = 0; i < _FS_LOCK && Files[i].fs; i++) ;
 374              		.loc 1 692 2 view .LVU98
 375              	.LVL39:
 376              		.loc 1 692 9 is_stmt 0 view .LVU99
 377 0000 0020     		movs	r0, #0
 378              		.loc 1 692 2 view .LVU100
 379 0002 00E0     		b	.L38
 380              	.LVL40:
 381              	.L40:
 382              		.loc 1 692 48 is_stmt 1 discriminator 4 view .LVU101
 383              		.loc 1 692 43 discriminator 4 view .LVU102
 384              		.loc 1 692 44 is_stmt 0 discriminator 4 view .LVU103
 385 0004 0130     		adds	r0, r0, #1
 386              	.LVL41:
 387              	.L38:
 388              		.loc 1 692 14 is_stmt 1 discriminator 1 view .LVU104
 389              		.loc 1 692 2 is_stmt 0 discriminator 1 view .LVU105
 390 0006 0128     		cmp	r0, #1
 391 0008 06D8     		bhi	.L39
 392              		.loc 1 692 38 discriminator 3 view .LVU106
 393 000a 00EB4002 		add	r2, r0, r0, lsl #1
 394 000e 9300     		lsls	r3, r2, #2
 395 0010 034A     		ldr	r2, .L41
 396 0012 D358     		ldr	r3, [r2, r3]
 397              		.loc 1 692 27 discriminator 3 view .LVU107
 398 0014 002B     		cmp	r3, #0
 399 0016 F5D1     		bne	.L40
 400              	.L39:
 693:Middlewares/Third_Party/FatFs/src/ff.c **** 	return (i == _FS_LOCK) ? 0 : 1;
 401              		.loc 1 693 2 is_stmt 1 view .LVU108
 694:Middlewares/Third_Party/FatFs/src/ff.c **** }
 402              		.loc 1 694 1 is_stmt 0 view .LVU109
 403 0018 0238     		subs	r0, r0, #2
 404              	.LVL42:
 405              		.loc 1 694 1 view .LVU110
 406 001a 18BF     		it	ne
 407 001c 0120     		movne	r0, #1
 408              	.LVL43:
 409              		.loc 1 694 1 view .LVU111
 410 001e 7047     		bx	lr
 411              	.L42:
 412              		.align	2
 413              	.L41:
 414 0020 00000000 		.word	.LANCHOR0
 415              		.cfi_endproc
 416              	.LFE70:
 418              		.section	.text.inc_lock,"ax",%progbits
 419              		.align	1
 420              		.syntax unified
 421              		.thumb
 422              		.thumb_func
 423              		.fpu softvfp
 425              	inc_lock:
 426              	.LVL44:
 427              	.LFB71:
ARM GAS  /tmp/cciFFPmJ.s 			page 21


 695:Middlewares/Third_Party/FatFs/src/ff.c **** 
 696:Middlewares/Third_Party/FatFs/src/ff.c **** 
 697:Middlewares/Third_Party/FatFs/src/ff.c **** static
 698:Middlewares/Third_Party/FatFs/src/ff.c **** UINT inc_lock (	/* Increment object open counter and returns its index (0:Internal error) */
 699:Middlewares/Third_Party/FatFs/src/ff.c **** 	DIR* dp,	/* Directory object pointing the file to register or increment */
 700:Middlewares/Third_Party/FatFs/src/ff.c **** 	int acc		/* Desired access (0:Read, 1:Write, 2:Delete/Rename) */
 701:Middlewares/Third_Party/FatFs/src/ff.c **** )
 702:Middlewares/Third_Party/FatFs/src/ff.c **** {
 428              		.loc 1 702 1 is_stmt 1 view -0
 429              		.cfi_startproc
 430              		@ args = 0, pretend = 0, frame = 0
 431              		@ frame_needed = 0, uses_anonymous_args = 0
 432              		@ link register save eliminated.
 433              		.loc 1 702 1 is_stmt 0 view .LVU113
 434 0000 70B4     		push	{r4, r5, r6}
 435              	.LCFI5:
 436              		.cfi_def_cfa_offset 12
 437              		.cfi_offset 4, -12
 438              		.cfi_offset 5, -8
 439              		.cfi_offset 6, -4
 703:Middlewares/Third_Party/FatFs/src/ff.c **** 	UINT i;
 440              		.loc 1 703 2 is_stmt 1 view .LVU114
 704:Middlewares/Third_Party/FatFs/src/ff.c **** 
 705:Middlewares/Third_Party/FatFs/src/ff.c **** 
 706:Middlewares/Third_Party/FatFs/src/ff.c **** 	for (i = 0; i < _FS_LOCK; i++) {	/* Find the object */
 441              		.loc 1 706 2 view .LVU115
 442              	.LVL45:
 443              		.loc 1 706 9 is_stmt 0 view .LVU116
 444 0002 0023     		movs	r3, #0
 445              		.loc 1 706 2 view .LVU117
 446 0004 00E0     		b	.L44
 447              	.LVL46:
 448              	.L45:
 449              		.loc 1 706 28 is_stmt 1 discriminator 2 view .LVU118
 450              		.loc 1 706 29 is_stmt 0 discriminator 2 view .LVU119
 451 0006 0133     		adds	r3, r3, #1
 452              	.LVL47:
 453              	.L44:
 454              		.loc 1 706 14 is_stmt 1 discriminator 1 view .LVU120
 455              		.loc 1 706 2 is_stmt 0 discriminator 1 view .LVU121
 456 0008 012B     		cmp	r3, #1
 457 000a 1CD8     		bhi	.L46
 707:Middlewares/Third_Party/FatFs/src/ff.c **** 		if (Files[i].fs == dp->fs &&
 458              		.loc 1 707 3 is_stmt 1 view .LVU122
 459              		.loc 1 707 15 is_stmt 0 view .LVU123
 460 000c 03EB4302 		add	r2, r3, r3, lsl #1
 461 0010 2E4C     		ldr	r4, .L61
 462 0012 54F82240 		ldr	r4, [r4, r2, lsl #2]
 463              		.loc 1 707 24 view .LVU124
 464 0016 D0F80022 		ldr	r2, [r0, #512]
 465              		.loc 1 707 6 view .LVU125
 466 001a 9442     		cmp	r4, r2
 467 001c F3D1     		bne	.L45
 708:Middlewares/Third_Party/FatFs/src/ff.c **** 			Files[i].clu == dp->sclust &&
 468              		.loc 1 708 12 discriminator 1 view .LVU126
 469 001e 03EB4302 		add	r2, r3, r3, lsl #1
 470 0022 2A4C     		ldr	r4, .L61
ARM GAS  /tmp/cciFFPmJ.s 			page 22


 471 0024 04EB8202 		add	r2, r4, r2, lsl #2
 472 0028 5468     		ldr	r4, [r2, #4]
 473              		.loc 1 708 22 discriminator 1 view .LVU127
 474 002a D0F80822 		ldr	r2, [r0, #520]
 707:Middlewares/Third_Party/FatFs/src/ff.c **** 		if (Files[i].fs == dp->fs &&
 475              		.loc 1 707 29 discriminator 1 view .LVU128
 476 002e 9442     		cmp	r4, r2
 477 0030 E9D1     		bne	.L45
 709:Middlewares/Third_Party/FatFs/src/ff.c **** 			Files[i].idx == dp->index) break;
 478              		.loc 1 709 12 view .LVU129
 479 0032 03EB4302 		add	r2, r3, r3, lsl #1
 480 0036 254C     		ldr	r4, .L61
 481 0038 04EB8202 		add	r2, r4, r2, lsl #2
 482 003c 1489     		ldrh	r4, [r2, #8]
 483              		.loc 1 709 22 view .LVU130
 484 003e B0F80622 		ldrh	r2, [r0, #518]
 708:Middlewares/Third_Party/FatFs/src/ff.c **** 			Files[i].clu == dp->sclust &&
 485              		.loc 1 708 31 view .LVU131
 486 0042 9442     		cmp	r4, r2
 487 0044 DFD1     		bne	.L45
 488              	.L46:
 710:Middlewares/Third_Party/FatFs/src/ff.c **** 	}
 711:Middlewares/Third_Party/FatFs/src/ff.c **** 
 712:Middlewares/Third_Party/FatFs/src/ff.c **** 	if (i == _FS_LOCK) {				/* Not opened. Register it as new. */
 489              		.loc 1 712 2 is_stmt 1 view .LVU132
 490              		.loc 1 712 5 is_stmt 0 view .LVU133
 491 0046 022B     		cmp	r3, #2
 492 0048 1AD0     		beq	.L60
 493              	.LVL48:
 494              	.L49:
 713:Middlewares/Third_Party/FatFs/src/ff.c **** 		for (i = 0; i < _FS_LOCK && Files[i].fs; i++) ;
 714:Middlewares/Third_Party/FatFs/src/ff.c **** 		if (i == _FS_LOCK) return 0;	/* No free entry to register (int err) */
 715:Middlewares/Third_Party/FatFs/src/ff.c **** 		Files[i].fs = dp->fs;
 716:Middlewares/Third_Party/FatFs/src/ff.c **** 		Files[i].clu = dp->sclust;
 717:Middlewares/Third_Party/FatFs/src/ff.c **** 		Files[i].idx = dp->index;
 718:Middlewares/Third_Party/FatFs/src/ff.c **** 		Files[i].ctr = 0;
 719:Middlewares/Third_Party/FatFs/src/ff.c **** 	}
 720:Middlewares/Third_Party/FatFs/src/ff.c **** 
 721:Middlewares/Third_Party/FatFs/src/ff.c **** 	if (acc && Files[i].ctr) return 0;	/* Access violation (int err) */
 495              		.loc 1 721 2 is_stmt 1 view .LVU134
 496              		.loc 1 721 5 is_stmt 0 view .LVU135
 497 004a 39B1     		cbz	r1, .L53
 498              		.loc 1 721 21 discriminator 1 view .LVU136
 499 004c 03EB4302 		add	r2, r3, r3, lsl #1
 500 0050 1E48     		ldr	r0, .L61
 501 0052 00EB8202 		add	r2, r0, r2, lsl #2
 502 0056 5289     		ldrh	r2, [r2, #10]
 503              		.loc 1 721 10 discriminator 1 view .LVU137
 504 0058 002A     		cmp	r2, #0
 505 005a 35D1     		bne	.L57
 506              	.L53:
 722:Middlewares/Third_Party/FatFs/src/ff.c **** 
 723:Middlewares/Third_Party/FatFs/src/ff.c **** 	Files[i].ctr = acc ? 0x100 : Files[i].ctr + 1;	/* Set semaphore value */
 507              		.loc 1 723 2 is_stmt 1 view .LVU138
 508              		.loc 1 723 15 is_stmt 0 view .LVU139
 509 005c 79BB     		cbnz	r1, .L58
 510              		.loc 1 723 39 discriminator 1 view .LVU140
ARM GAS  /tmp/cciFFPmJ.s 			page 23


 511 005e 03EB4302 		add	r2, r3, r3, lsl #1
 512 0062 1A49     		ldr	r1, .L61
 513              	.LVL49:
 514              		.loc 1 723 39 discriminator 1 view .LVU141
 515 0064 01EB8202 		add	r2, r1, r2, lsl #2
 516 0068 5189     		ldrh	r1, [r2, #10]
 517              		.loc 1 723 15 discriminator 1 view .LVU142
 518 006a 0131     		adds	r1, r1, #1
 519 006c 89B2     		uxth	r1, r1
 520              	.L54:
 521              		.loc 1 723 15 discriminator 4 view .LVU143
 522 006e 03EB4300 		add	r0, r3, r3, lsl #1
 523 0072 164A     		ldr	r2, .L61
 524 0074 02EB8002 		add	r2, r2, r0, lsl #2
 525 0078 5181     		strh	r1, [r2, #10]	@ movhi
 724:Middlewares/Third_Party/FatFs/src/ff.c **** 
 725:Middlewares/Third_Party/FatFs/src/ff.c **** 	return i + 1;
 526              		.loc 1 725 2 is_stmt 1 discriminator 4 view .LVU144
 527              		.loc 1 725 11 is_stmt 0 discriminator 4 view .LVU145
 528 007a 581C     		adds	r0, r3, #1
 529              	.L43:
 726:Middlewares/Third_Party/FatFs/src/ff.c **** }
 530              		.loc 1 726 1 view .LVU146
 531 007c 70BC     		pop	{r4, r5, r6}
 532              	.LCFI6:
 533              		.cfi_remember_state
 534              		.cfi_restore 6
 535              		.cfi_restore 5
 536              		.cfi_restore 4
 537              		.cfi_def_cfa_offset 0
 538 007e 7047     		bx	lr
 539              	.LVL50:
 540              	.L60:
 541              	.LCFI7:
 542              		.cfi_restore_state
 713:Middlewares/Third_Party/FatFs/src/ff.c **** 		if (i == _FS_LOCK) return 0;	/* No free entry to register (int err) */
 543              		.loc 1 713 10 view .LVU147
 544 0080 0023     		movs	r3, #0
 545              	.LVL51:
 546              	.L48:
 713:Middlewares/Third_Party/FatFs/src/ff.c **** 		if (i == _FS_LOCK) return 0;	/* No free entry to register (int err) */
 547              		.loc 1 713 15 is_stmt 1 discriminator 1 view .LVU148
 713:Middlewares/Third_Party/FatFs/src/ff.c **** 		if (i == _FS_LOCK) return 0;	/* No free entry to register (int err) */
 548              		.loc 1 713 3 is_stmt 0 discriminator 1 view .LVU149
 549 0082 012B     		cmp	r3, #1
 550 0084 07D8     		bhi	.L50
 713:Middlewares/Third_Party/FatFs/src/ff.c **** 		if (i == _FS_LOCK) return 0;	/* No free entry to register (int err) */
 551              		.loc 1 713 39 discriminator 3 view .LVU150
 552 0086 03EB4302 		add	r2, r3, r3, lsl #1
 553 008a 104C     		ldr	r4, .L61
 554 008c 54F82220 		ldr	r2, [r4, r2, lsl #2]
 713:Middlewares/Third_Party/FatFs/src/ff.c **** 		if (i == _FS_LOCK) return 0;	/* No free entry to register (int err) */
 555              		.loc 1 713 28 discriminator 3 view .LVU151
 556 0090 0AB1     		cbz	r2, .L50
 713:Middlewares/Third_Party/FatFs/src/ff.c **** 		if (i == _FS_LOCK) return 0;	/* No free entry to register (int err) */
 557              		.loc 1 713 49 is_stmt 1 discriminator 4 view .LVU152
 713:Middlewares/Third_Party/FatFs/src/ff.c **** 		if (i == _FS_LOCK) return 0;	/* No free entry to register (int err) */
ARM GAS  /tmp/cciFFPmJ.s 			page 24


 558              		.loc 1 713 44 discriminator 4 view .LVU153
 713:Middlewares/Third_Party/FatFs/src/ff.c **** 		if (i == _FS_LOCK) return 0;	/* No free entry to register (int err) */
 559              		.loc 1 713 45 is_stmt 0 discriminator 4 view .LVU154
 560 0092 0133     		adds	r3, r3, #1
 561              	.LVL52:
 713:Middlewares/Third_Party/FatFs/src/ff.c **** 		if (i == _FS_LOCK) return 0;	/* No free entry to register (int err) */
 562              		.loc 1 713 45 discriminator 4 view .LVU155
 563 0094 F5E7     		b	.L48
 564              	.L50:
 714:Middlewares/Third_Party/FatFs/src/ff.c **** 		Files[i].fs = dp->fs;
 565              		.loc 1 714 3 is_stmt 1 view .LVU156
 714:Middlewares/Third_Party/FatFs/src/ff.c **** 		Files[i].fs = dp->fs;
 566              		.loc 1 714 6 is_stmt 0 view .LVU157
 567 0096 022B     		cmp	r3, #2
 568 0098 14D0     		beq	.L56
 715:Middlewares/Third_Party/FatFs/src/ff.c **** 		Files[i].clu = dp->sclust;
 569              		.loc 1 715 3 is_stmt 1 view .LVU158
 715:Middlewares/Third_Party/FatFs/src/ff.c **** 		Files[i].clu = dp->sclust;
 570              		.loc 1 715 19 is_stmt 0 view .LVU159
 571 009a D0F80062 		ldr	r6, [r0, #512]
 715:Middlewares/Third_Party/FatFs/src/ff.c **** 		Files[i].clu = dp->sclust;
 572              		.loc 1 715 15 view .LVU160
 573 009e 0B4C     		ldr	r4, .L61
 574 00a0 03EB4305 		add	r5, r3, r3, lsl #1
 575 00a4 04EB8502 		add	r2, r4, r5, lsl #2
 576 00a8 44F82560 		str	r6, [r4, r5, lsl #2]
 716:Middlewares/Third_Party/FatFs/src/ff.c **** 		Files[i].idx = dp->index;
 577              		.loc 1 716 3 is_stmt 1 view .LVU161
 716:Middlewares/Third_Party/FatFs/src/ff.c **** 		Files[i].idx = dp->index;
 578              		.loc 1 716 20 is_stmt 0 view .LVU162
 579 00ac D0F80842 		ldr	r4, [r0, #520]
 716:Middlewares/Third_Party/FatFs/src/ff.c **** 		Files[i].idx = dp->index;
 580              		.loc 1 716 16 view .LVU163
 581 00b0 5460     		str	r4, [r2, #4]
 717:Middlewares/Third_Party/FatFs/src/ff.c **** 		Files[i].ctr = 0;
 582              		.loc 1 717 3 is_stmt 1 view .LVU164
 717:Middlewares/Third_Party/FatFs/src/ff.c **** 		Files[i].ctr = 0;
 583              		.loc 1 717 20 is_stmt 0 view .LVU165
 584 00b2 B0F80602 		ldrh	r0, [r0, #518]
 585              	.LVL53:
 717:Middlewares/Third_Party/FatFs/src/ff.c **** 		Files[i].ctr = 0;
 586              		.loc 1 717 16 view .LVU166
 587 00b6 1081     		strh	r0, [r2, #8]	@ movhi
 718:Middlewares/Third_Party/FatFs/src/ff.c **** 	}
 588              		.loc 1 718 3 is_stmt 1 view .LVU167
 718:Middlewares/Third_Party/FatFs/src/ff.c **** 	}
 589              		.loc 1 718 16 is_stmt 0 view .LVU168
 590 00b8 0020     		movs	r0, #0
 591 00ba 5081     		strh	r0, [r2, #10]	@ movhi
 592 00bc C5E7     		b	.L49
 593              	.L58:
 723:Middlewares/Third_Party/FatFs/src/ff.c **** 
 594              		.loc 1 723 15 view .LVU169
 595 00be 4FF48071 		mov	r1, #256
 596              	.LVL54:
 723:Middlewares/Third_Party/FatFs/src/ff.c **** 
 597              		.loc 1 723 15 view .LVU170
ARM GAS  /tmp/cciFFPmJ.s 			page 25


 598 00c2 D4E7     		b	.L54
 599              	.LVL55:
 600              	.L56:
 714:Middlewares/Third_Party/FatFs/src/ff.c **** 		Files[i].fs = dp->fs;
 601              		.loc 1 714 29 view .LVU171
 602 00c4 0020     		movs	r0, #0
 603              	.LVL56:
 714:Middlewares/Third_Party/FatFs/src/ff.c **** 		Files[i].fs = dp->fs;
 604              		.loc 1 714 29 view .LVU172
 605 00c6 D9E7     		b	.L43
 606              	.L57:
 721:Middlewares/Third_Party/FatFs/src/ff.c **** 
 607              		.loc 1 721 34 view .LVU173
 608 00c8 0020     		movs	r0, #0
 609 00ca D7E7     		b	.L43
 610              	.L62:
 611              		.align	2
 612              	.L61:
 613 00cc 00000000 		.word	.LANCHOR0
 614              		.cfi_endproc
 615              	.LFE71:
 617              		.section	.text.dec_lock,"ax",%progbits
 618              		.align	1
 619              		.syntax unified
 620              		.thumb
 621              		.thumb_func
 622              		.fpu softvfp
 624              	dec_lock:
 625              	.LVL57:
 626              	.LFB72:
 727:Middlewares/Third_Party/FatFs/src/ff.c **** 
 728:Middlewares/Third_Party/FatFs/src/ff.c **** 
 729:Middlewares/Third_Party/FatFs/src/ff.c **** static
 730:Middlewares/Third_Party/FatFs/src/ff.c **** FRESULT dec_lock (	/* Decrement object open counter */
 731:Middlewares/Third_Party/FatFs/src/ff.c **** 	UINT i			/* Semaphore index (1..) */
 732:Middlewares/Third_Party/FatFs/src/ff.c **** )
 733:Middlewares/Third_Party/FatFs/src/ff.c **** {
 627              		.loc 1 733 1 is_stmt 1 view -0
 628              		.cfi_startproc
 629              		@ args = 0, pretend = 0, frame = 0
 630              		@ frame_needed = 0, uses_anonymous_args = 0
 631              		@ link register save eliminated.
 734:Middlewares/Third_Party/FatFs/src/ff.c **** 	WORD n;
 632              		.loc 1 734 2 view .LVU175
 735:Middlewares/Third_Party/FatFs/src/ff.c **** 	FRESULT res;
 633              		.loc 1 735 2 view .LVU176
 736:Middlewares/Third_Party/FatFs/src/ff.c **** 
 737:Middlewares/Third_Party/FatFs/src/ff.c **** 
 738:Middlewares/Third_Party/FatFs/src/ff.c **** 	if (--i < _FS_LOCK) {	/* Shift index number origin from 0 */
 634              		.loc 1 738 2 view .LVU177
 635              		.loc 1 738 5 is_stmt 0 view .LVU178
 636 0000 0138     		subs	r0, r0, #1
 637              	.LVL58:
 638              		.loc 1 738 5 view .LVU179
 639 0002 0128     		cmp	r0, #1
 640 0004 1AD8     		bhi	.L66
 739:Middlewares/Third_Party/FatFs/src/ff.c **** 		n = Files[i].ctr;
ARM GAS  /tmp/cciFFPmJ.s 			page 26


 641              		.loc 1 739 3 is_stmt 1 view .LVU180
 642              		.loc 1 739 5 is_stmt 0 view .LVU181
 643 0006 00EB4003 		add	r3, r0, r0, lsl #1
 644 000a 0E4A     		ldr	r2, .L69
 645 000c 02EB8303 		add	r3, r2, r3, lsl #2
 646 0010 5B89     		ldrh	r3, [r3, #10]
 647              	.LVL59:
 740:Middlewares/Third_Party/FatFs/src/ff.c **** 		if (n == 0x100) n = 0;		/* If write mode open, delete the entry */
 648              		.loc 1 740 3 is_stmt 1 view .LVU182
 649              		.loc 1 740 6 is_stmt 0 view .LVU183
 650 0012 B3F5807F 		cmp	r3, #256
 651 0016 03D0     		beq	.L67
 741:Middlewares/Third_Party/FatFs/src/ff.c **** 		if (n) n--;					/* Decrement read mode open count */
 652              		.loc 1 741 3 is_stmt 1 view .LVU184
 653              		.loc 1 741 6 is_stmt 0 view .LVU185
 654 0018 1BB1     		cbz	r3, .L65
 655              		.loc 1 741 10 is_stmt 1 discriminator 1 view .LVU186
 656              		.loc 1 741 11 is_stmt 0 discriminator 1 view .LVU187
 657 001a 013B     		subs	r3, r3, #1
 658              	.LVL60:
 659              		.loc 1 741 11 discriminator 1 view .LVU188
 660 001c 9BB2     		uxth	r3, r3
 661              	.LVL61:
 662              		.loc 1 741 11 discriminator 1 view .LVU189
 663 001e 00E0     		b	.L65
 664              	.L67:
 740:Middlewares/Third_Party/FatFs/src/ff.c **** 		if (n == 0x100) n = 0;		/* If write mode open, delete the entry */
 665              		.loc 1 740 21 view .LVU190
 666 0020 0023     		movs	r3, #0
 667              	.LVL62:
 668              	.L65:
 742:Middlewares/Third_Party/FatFs/src/ff.c **** 		Files[i].ctr = n;
 669              		.loc 1 742 3 is_stmt 1 view .LVU191
 670              		.loc 1 742 16 is_stmt 0 view .LVU192
 671 0022 00EB4002 		add	r2, r0, r0, lsl #1
 672 0026 0749     		ldr	r1, .L69
 673 0028 01EB8202 		add	r2, r1, r2, lsl #2
 674 002c 5381     		strh	r3, [r2, #10]	@ movhi
 743:Middlewares/Third_Party/FatFs/src/ff.c **** 		if (!n) Files[i].fs = 0;	/* Delete the entry if open count gets zero */
 675              		.loc 1 743 3 is_stmt 1 view .LVU193
 676              		.loc 1 743 6 is_stmt 0 view .LVU194
 677 002e 3BB9     		cbnz	r3, .L68
 678              		.loc 1 743 11 is_stmt 1 discriminator 1 view .LVU195
 679              		.loc 1 743 23 is_stmt 0 discriminator 1 view .LVU196
 680 0030 00EB4000 		add	r0, r0, r0, lsl #1
 681              	.LVL63:
 682              		.loc 1 743 23 discriminator 1 view .LVU197
 683 0034 8300     		lsls	r3, r0, #2
 684              	.LVL64:
 685              		.loc 1 743 23 discriminator 1 view .LVU198
 686 0036 0020     		movs	r0, #0
 687 0038 C850     		str	r0, [r1, r3]
 688 003a 7047     		bx	lr
 689              	.LVL65:
 690              	.L66:
 744:Middlewares/Third_Party/FatFs/src/ff.c **** 		res = FR_OK;
 745:Middlewares/Third_Party/FatFs/src/ff.c **** 	} else {
ARM GAS  /tmp/cciFFPmJ.s 			page 27


 746:Middlewares/Third_Party/FatFs/src/ff.c **** 		res = FR_INT_ERR;			/* Invalid index nunber */
 691              		.loc 1 746 7 view .LVU199
 692 003c 0220     		movs	r0, #2
 693              	.LVL66:
 694              		.loc 1 746 7 view .LVU200
 695 003e 7047     		bx	lr
 696              	.LVL67:
 697              	.L68:
 744:Middlewares/Third_Party/FatFs/src/ff.c **** 		res = FR_OK;
 698              		.loc 1 744 7 view .LVU201
 699 0040 0020     		movs	r0, #0
 700              	.LVL68:
 747:Middlewares/Third_Party/FatFs/src/ff.c **** 	}
 748:Middlewares/Third_Party/FatFs/src/ff.c **** 	return res;
 701              		.loc 1 748 2 is_stmt 1 view .LVU202
 749:Middlewares/Third_Party/FatFs/src/ff.c **** }
 702              		.loc 1 749 1 is_stmt 0 view .LVU203
 703 0042 7047     		bx	lr
 704              	.L70:
 705              		.align	2
 706              	.L69:
 707 0044 00000000 		.word	.LANCHOR0
 708              		.cfi_endproc
 709              	.LFE72:
 711              		.section	.text.clear_lock,"ax",%progbits
 712              		.align	1
 713              		.syntax unified
 714              		.thumb
 715              		.thumb_func
 716              		.fpu softvfp
 718              	clear_lock:
 719              	.LVL69:
 720              	.LFB73:
 750:Middlewares/Third_Party/FatFs/src/ff.c **** 
 751:Middlewares/Third_Party/FatFs/src/ff.c **** 
 752:Middlewares/Third_Party/FatFs/src/ff.c **** static
 753:Middlewares/Third_Party/FatFs/src/ff.c **** void clear_lock (	/* Clear lock entries of the volume */
 754:Middlewares/Third_Party/FatFs/src/ff.c **** 	FATFS *fs
 755:Middlewares/Third_Party/FatFs/src/ff.c **** )
 756:Middlewares/Third_Party/FatFs/src/ff.c **** {
 721              		.loc 1 756 1 is_stmt 1 view -0
 722              		.cfi_startproc
 723              		@ args = 0, pretend = 0, frame = 0
 724              		@ frame_needed = 0, uses_anonymous_args = 0
 725              		@ link register save eliminated.
 757:Middlewares/Third_Party/FatFs/src/ff.c **** 	UINT i;
 726              		.loc 1 757 2 view .LVU205
 758:Middlewares/Third_Party/FatFs/src/ff.c **** 
 759:Middlewares/Third_Party/FatFs/src/ff.c **** 	for (i = 0; i < _FS_LOCK; i++) {
 727              		.loc 1 759 2 view .LVU206
 728              		.loc 1 759 9 is_stmt 0 view .LVU207
 729 0000 0023     		movs	r3, #0
 730              		.loc 1 759 2 view .LVU208
 731 0002 02E0     		b	.L76
 732              	.LVL70:
 733              	.L83:
 734              	.LCFI8:
ARM GAS  /tmp/cciFFPmJ.s 			page 28


 735              		.cfi_def_cfa_offset 4
 736              		.cfi_offset 4, -4
 760:Middlewares/Third_Party/FatFs/src/ff.c **** 		if (Files[i].fs == fs) Files[i].fs = 0;
 761:Middlewares/Third_Party/FatFs/src/ff.c **** 	}
 762:Middlewares/Third_Party/FatFs/src/ff.c **** }
 737              		.loc 1 762 1 view .LVU209
 738 0004 10BC     		pop	{r4}
 739              	.LCFI9:
 740              		.cfi_restore 4
 741              		.cfi_def_cfa_offset 0
 742 0006 7047     		bx	lr
 743              	.L82:
 759:Middlewares/Third_Party/FatFs/src/ff.c **** 		if (Files[i].fs == fs) Files[i].fs = 0;
 744              		.loc 1 759 28 is_stmt 1 view .LVU210
 759:Middlewares/Third_Party/FatFs/src/ff.c **** 		if (Files[i].fs == fs) Files[i].fs = 0;
 745              		.loc 1 759 29 is_stmt 0 view .LVU211
 746 0008 0133     		adds	r3, r3, #1
 747              	.LVL71:
 748              	.L76:
 759:Middlewares/Third_Party/FatFs/src/ff.c **** 		if (Files[i].fs == fs) Files[i].fs = 0;
 749              		.loc 1 759 14 is_stmt 1 view .LVU212
 759:Middlewares/Third_Party/FatFs/src/ff.c **** 		if (Files[i].fs == fs) Files[i].fs = 0;
 750              		.loc 1 759 2 is_stmt 0 view .LVU213
 751 000a 012B     		cmp	r3, #1
 752 000c 17D8     		bhi	.L81
 760:Middlewares/Third_Party/FatFs/src/ff.c **** 		if (Files[i].fs == fs) Files[i].fs = 0;
 753              		.loc 1 760 3 is_stmt 1 view .LVU214
 760:Middlewares/Third_Party/FatFs/src/ff.c **** 		if (Files[i].fs == fs) Files[i].fs = 0;
 754              		.loc 1 760 15 is_stmt 0 view .LVU215
 755 000e 03EB4302 		add	r2, r3, r3, lsl #1
 756 0012 0B49     		ldr	r1, .L84
 757 0014 51F82220 		ldr	r2, [r1, r2, lsl #2]
 760:Middlewares/Third_Party/FatFs/src/ff.c **** 		if (Files[i].fs == fs) Files[i].fs = 0;
 758              		.loc 1 760 6 view .LVU216
 759 0018 8242     		cmp	r2, r0
 760 001a F5D1     		bne	.L82
 756:Middlewares/Third_Party/FatFs/src/ff.c **** 	UINT i;
 761              		.loc 1 756 1 view .LVU217
 762 001c 10B4     		push	{r4}
 763              	.LCFI10:
 764              		.cfi_def_cfa_offset 4
 765              		.cfi_offset 4, -4
 766              	.L77:
 760:Middlewares/Third_Party/FatFs/src/ff.c **** 		if (Files[i].fs == fs) Files[i].fs = 0;
 767              		.loc 1 760 26 is_stmt 1 discriminator 1 view .LVU218
 760:Middlewares/Third_Party/FatFs/src/ff.c **** 		if (Files[i].fs == fs) Files[i].fs = 0;
 768              		.loc 1 760 38 is_stmt 0 discriminator 1 view .LVU219
 769 001e 03EB4302 		add	r2, r3, r3, lsl #1
 770 0022 9200     		lsls	r2, r2, #2
 771 0024 0024     		movs	r4, #0
 772 0026 8C50     		str	r4, [r1, r2]
 773              	.L73:
 759:Middlewares/Third_Party/FatFs/src/ff.c **** 		if (Files[i].fs == fs) Files[i].fs = 0;
 774              		.loc 1 759 28 is_stmt 1 discriminator 2 view .LVU220
 759:Middlewares/Third_Party/FatFs/src/ff.c **** 		if (Files[i].fs == fs) Files[i].fs = 0;
 775              		.loc 1 759 29 is_stmt 0 discriminator 2 view .LVU221
 776 0028 0133     		adds	r3, r3, #1
ARM GAS  /tmp/cciFFPmJ.s 			page 29


 777              	.LVL72:
 759:Middlewares/Third_Party/FatFs/src/ff.c **** 		if (Files[i].fs == fs) Files[i].fs = 0;
 778              		.loc 1 759 14 is_stmt 1 discriminator 2 view .LVU222
 759:Middlewares/Third_Party/FatFs/src/ff.c **** 		if (Files[i].fs == fs) Files[i].fs = 0;
 779              		.loc 1 759 2 is_stmt 0 discriminator 2 view .LVU223
 780 002a 012B     		cmp	r3, #1
 781 002c EAD8     		bhi	.L83
 760:Middlewares/Third_Party/FatFs/src/ff.c **** 		if (Files[i].fs == fs) Files[i].fs = 0;
 782              		.loc 1 760 3 is_stmt 1 view .LVU224
 760:Middlewares/Third_Party/FatFs/src/ff.c **** 		if (Files[i].fs == fs) Files[i].fs = 0;
 783              		.loc 1 760 15 is_stmt 0 view .LVU225
 784 002e 03EB4302 		add	r2, r3, r3, lsl #1
 785 0032 0349     		ldr	r1, .L84
 786 0034 51F82220 		ldr	r2, [r1, r2, lsl #2]
 760:Middlewares/Third_Party/FatFs/src/ff.c **** 		if (Files[i].fs == fs) Files[i].fs = 0;
 787              		.loc 1 760 6 view .LVU226
 788 0038 8242     		cmp	r2, r0
 789 003a F5D1     		bne	.L73
 790 003c EFE7     		b	.L77
 791              	.L81:
 792              	.LCFI11:
 793              		.cfi_def_cfa_offset 0
 794              		.cfi_restore 4
 760:Middlewares/Third_Party/FatFs/src/ff.c **** 		if (Files[i].fs == fs) Files[i].fs = 0;
 795              		.loc 1 760 6 view .LVU227
 796 003e 7047     		bx	lr
 797              	.L85:
 798              		.align	2
 799              	.L84:
 800 0040 00000000 		.word	.LANCHOR0
 801              		.cfi_endproc
 802              	.LFE73:
 804              		.section	.text.clmt_clust,"ax",%progbits
 805              		.align	1
 806              		.syntax unified
 807              		.thumb
 808              		.thumb_func
 809              		.fpu softvfp
 811              	clmt_clust:
 812              	.LVL73:
 813              	.LFB82:
 763:Middlewares/Third_Party/FatFs/src/ff.c **** #endif
 764:Middlewares/Third_Party/FatFs/src/ff.c **** 
 765:Middlewares/Third_Party/FatFs/src/ff.c **** 
 766:Middlewares/Third_Party/FatFs/src/ff.c **** 
 767:Middlewares/Third_Party/FatFs/src/ff.c **** 
 768:Middlewares/Third_Party/FatFs/src/ff.c **** /*-----------------------------------------------------------------------*/
 769:Middlewares/Third_Party/FatFs/src/ff.c **** /* Move/Flush disk access window in the file system object               */
 770:Middlewares/Third_Party/FatFs/src/ff.c **** /*-----------------------------------------------------------------------*/
 771:Middlewares/Third_Party/FatFs/src/ff.c **** #if !_FS_READONLY
 772:Middlewares/Third_Party/FatFs/src/ff.c **** static
 773:Middlewares/Third_Party/FatFs/src/ff.c **** FRESULT sync_window (
 774:Middlewares/Third_Party/FatFs/src/ff.c **** 	FATFS* fs		/* File system object */
 775:Middlewares/Third_Party/FatFs/src/ff.c **** )
 776:Middlewares/Third_Party/FatFs/src/ff.c **** {
 777:Middlewares/Third_Party/FatFs/src/ff.c **** 	DWORD wsect;
 778:Middlewares/Third_Party/FatFs/src/ff.c **** 	UINT nf;
ARM GAS  /tmp/cciFFPmJ.s 			page 30


 779:Middlewares/Third_Party/FatFs/src/ff.c **** 	FRESULT res = FR_OK;
 780:Middlewares/Third_Party/FatFs/src/ff.c **** 
 781:Middlewares/Third_Party/FatFs/src/ff.c **** 
 782:Middlewares/Third_Party/FatFs/src/ff.c **** 	if (fs->wflag) {	/* Write back the sector if it is dirty */
 783:Middlewares/Third_Party/FatFs/src/ff.c **** 		wsect = fs->winsect;	/* Current sector number */
 784:Middlewares/Third_Party/FatFs/src/ff.c **** 		if (disk_write(fs->drv, fs->win.d8, wsect, 1) != RES_OK) {
 785:Middlewares/Third_Party/FatFs/src/ff.c **** 			res = FR_DISK_ERR;
 786:Middlewares/Third_Party/FatFs/src/ff.c **** 		} else {
 787:Middlewares/Third_Party/FatFs/src/ff.c **** 			fs->wflag = 0;
 788:Middlewares/Third_Party/FatFs/src/ff.c **** 			if (wsect - fs->fatbase < fs->fsize) {		/* Is it in the FAT area? */
 789:Middlewares/Third_Party/FatFs/src/ff.c **** 				for (nf = fs->n_fats; nf >= 2; nf--) {	/* Reflect the change to all FAT copies */
 790:Middlewares/Third_Party/FatFs/src/ff.c **** 					wsect += fs->fsize;
 791:Middlewares/Third_Party/FatFs/src/ff.c **** 					disk_write(fs->drv, fs->win.d8, wsect, 1);
 792:Middlewares/Third_Party/FatFs/src/ff.c **** 				}
 793:Middlewares/Third_Party/FatFs/src/ff.c **** 			}
 794:Middlewares/Third_Party/FatFs/src/ff.c **** 		}
 795:Middlewares/Third_Party/FatFs/src/ff.c **** 	}
 796:Middlewares/Third_Party/FatFs/src/ff.c **** 	return res;
 797:Middlewares/Third_Party/FatFs/src/ff.c **** }
 798:Middlewares/Third_Party/FatFs/src/ff.c **** #endif
 799:Middlewares/Third_Party/FatFs/src/ff.c **** 
 800:Middlewares/Third_Party/FatFs/src/ff.c **** 
 801:Middlewares/Third_Party/FatFs/src/ff.c **** static
 802:Middlewares/Third_Party/FatFs/src/ff.c **** FRESULT move_window (
 803:Middlewares/Third_Party/FatFs/src/ff.c **** 	FATFS* fs,		/* File system object */
 804:Middlewares/Third_Party/FatFs/src/ff.c **** 	DWORD sector	/* Sector number to make appearance in the fs->win[].d8 */
 805:Middlewares/Third_Party/FatFs/src/ff.c **** )
 806:Middlewares/Third_Party/FatFs/src/ff.c **** {
 807:Middlewares/Third_Party/FatFs/src/ff.c **** 	FRESULT res = FR_OK;
 808:Middlewares/Third_Party/FatFs/src/ff.c **** 
 809:Middlewares/Third_Party/FatFs/src/ff.c **** 
 810:Middlewares/Third_Party/FatFs/src/ff.c **** 	if (sector != fs->winsect) {	/* Window offset changed? */
 811:Middlewares/Third_Party/FatFs/src/ff.c **** #if !_FS_READONLY
 812:Middlewares/Third_Party/FatFs/src/ff.c **** 		res = sync_window(fs);		/* Write-back changes */
 813:Middlewares/Third_Party/FatFs/src/ff.c **** #endif
 814:Middlewares/Third_Party/FatFs/src/ff.c **** 		if (res == FR_OK) {			/* Fill sector window with new data */
 815:Middlewares/Third_Party/FatFs/src/ff.c **** 			if (disk_read(fs->drv, fs->win.d8, sector, 1) != RES_OK) {
 816:Middlewares/Third_Party/FatFs/src/ff.c **** 				sector = 0xFFFFFFFF;	/* Invalidate window if data is not reliable */
 817:Middlewares/Third_Party/FatFs/src/ff.c **** 				res = FR_DISK_ERR;
 818:Middlewares/Third_Party/FatFs/src/ff.c **** 			}
 819:Middlewares/Third_Party/FatFs/src/ff.c **** 			fs->winsect = sector;
 820:Middlewares/Third_Party/FatFs/src/ff.c **** 		}
 821:Middlewares/Third_Party/FatFs/src/ff.c **** 	}
 822:Middlewares/Third_Party/FatFs/src/ff.c **** 	return res;
 823:Middlewares/Third_Party/FatFs/src/ff.c **** }
 824:Middlewares/Third_Party/FatFs/src/ff.c **** 
 825:Middlewares/Third_Party/FatFs/src/ff.c **** 
 826:Middlewares/Third_Party/FatFs/src/ff.c **** 
 827:Middlewares/Third_Party/FatFs/src/ff.c **** 
 828:Middlewares/Third_Party/FatFs/src/ff.c **** /*-----------------------------------------------------------------------*/
 829:Middlewares/Third_Party/FatFs/src/ff.c **** /* Synchronize file system and strage device                             */
 830:Middlewares/Third_Party/FatFs/src/ff.c **** /*-----------------------------------------------------------------------*/
 831:Middlewares/Third_Party/FatFs/src/ff.c **** #if !_FS_READONLY
 832:Middlewares/Third_Party/FatFs/src/ff.c **** static
 833:Middlewares/Third_Party/FatFs/src/ff.c **** FRESULT sync_fs (	/* FR_OK: successful, FR_DISK_ERR: failed */
 834:Middlewares/Third_Party/FatFs/src/ff.c **** 	FATFS* fs		/* File system object */
 835:Middlewares/Third_Party/FatFs/src/ff.c **** )
ARM GAS  /tmp/cciFFPmJ.s 			page 31


 836:Middlewares/Third_Party/FatFs/src/ff.c **** {
 837:Middlewares/Third_Party/FatFs/src/ff.c **** 	FRESULT res;
 838:Middlewares/Third_Party/FatFs/src/ff.c **** 
 839:Middlewares/Third_Party/FatFs/src/ff.c **** 
 840:Middlewares/Third_Party/FatFs/src/ff.c **** 	res = sync_window(fs);
 841:Middlewares/Third_Party/FatFs/src/ff.c **** 	if (res == FR_OK) {
 842:Middlewares/Third_Party/FatFs/src/ff.c **** 		/* Update FSINFO sector if needed */
 843:Middlewares/Third_Party/FatFs/src/ff.c **** 		if (fs->fs_type == FS_FAT32 && fs->fsi_flag == 1) {
 844:Middlewares/Third_Party/FatFs/src/ff.c **** 			/* Create FSINFO structure */
 845:Middlewares/Third_Party/FatFs/src/ff.c **** 			mem_set(fs->win.d8, 0, SS(fs));
 846:Middlewares/Third_Party/FatFs/src/ff.c **** 			ST_WORD(fs->win.d8 + BS_55AA, 0xAA55);
 847:Middlewares/Third_Party/FatFs/src/ff.c **** 			ST_DWORD(fs->win.d8 + FSI_LeadSig, 0x41615252);
 848:Middlewares/Third_Party/FatFs/src/ff.c **** 			ST_DWORD(fs->win.d8 + FSI_StrucSig, 0x61417272);
 849:Middlewares/Third_Party/FatFs/src/ff.c **** 			ST_DWORD(fs->win.d8 + FSI_Free_Count, fs->free_clust);
 850:Middlewares/Third_Party/FatFs/src/ff.c **** 			ST_DWORD(fs->win.d8 + FSI_Nxt_Free, fs->last_clust);
 851:Middlewares/Third_Party/FatFs/src/ff.c **** 			/* Write it into the FSINFO sector */
 852:Middlewares/Third_Party/FatFs/src/ff.c **** 			fs->winsect = fs->volbase + 1;
 853:Middlewares/Third_Party/FatFs/src/ff.c **** 			disk_write(fs->drv, fs->win.d8, fs->winsect, 1);
 854:Middlewares/Third_Party/FatFs/src/ff.c **** 			fs->fsi_flag = 0;
 855:Middlewares/Third_Party/FatFs/src/ff.c **** 		}
 856:Middlewares/Third_Party/FatFs/src/ff.c **** 		/* Make sure that no pending write process in the physical drive */
 857:Middlewares/Third_Party/FatFs/src/ff.c **** 		if (disk_ioctl(fs->drv, CTRL_SYNC, 0) != RES_OK)
 858:Middlewares/Third_Party/FatFs/src/ff.c **** 			res = FR_DISK_ERR;
 859:Middlewares/Third_Party/FatFs/src/ff.c **** 	}
 860:Middlewares/Third_Party/FatFs/src/ff.c **** 
 861:Middlewares/Third_Party/FatFs/src/ff.c **** 	return res;
 862:Middlewares/Third_Party/FatFs/src/ff.c **** }
 863:Middlewares/Third_Party/FatFs/src/ff.c **** #endif
 864:Middlewares/Third_Party/FatFs/src/ff.c **** 
 865:Middlewares/Third_Party/FatFs/src/ff.c **** 
 866:Middlewares/Third_Party/FatFs/src/ff.c **** 
 867:Middlewares/Third_Party/FatFs/src/ff.c **** 
 868:Middlewares/Third_Party/FatFs/src/ff.c **** /*-----------------------------------------------------------------------*/
 869:Middlewares/Third_Party/FatFs/src/ff.c **** /* Get sector# from cluster#                                             */
 870:Middlewares/Third_Party/FatFs/src/ff.c **** /*-----------------------------------------------------------------------*/
 871:Middlewares/Third_Party/FatFs/src/ff.c **** /* Hidden API for hacks and disk tools */
 872:Middlewares/Third_Party/FatFs/src/ff.c **** 
 873:Middlewares/Third_Party/FatFs/src/ff.c **** DWORD clust2sect (	/* !=0: Sector number, 0: Failed - invalid cluster# */
 874:Middlewares/Third_Party/FatFs/src/ff.c **** 	FATFS* fs,		/* File system object */
 875:Middlewares/Third_Party/FatFs/src/ff.c **** 	DWORD clst		/* Cluster# to be converted */
 876:Middlewares/Third_Party/FatFs/src/ff.c **** )
 877:Middlewares/Third_Party/FatFs/src/ff.c **** {
 878:Middlewares/Third_Party/FatFs/src/ff.c **** 	clst -= 2;
 879:Middlewares/Third_Party/FatFs/src/ff.c **** 	if (clst >= fs->n_fatent - 2) return 0;		/* Invalid cluster# */
 880:Middlewares/Third_Party/FatFs/src/ff.c **** 	return clst * fs->csize + fs->database;
 881:Middlewares/Third_Party/FatFs/src/ff.c **** }
 882:Middlewares/Third_Party/FatFs/src/ff.c **** 
 883:Middlewares/Third_Party/FatFs/src/ff.c **** 
 884:Middlewares/Third_Party/FatFs/src/ff.c **** 
 885:Middlewares/Third_Party/FatFs/src/ff.c **** 
 886:Middlewares/Third_Party/FatFs/src/ff.c **** /*-----------------------------------------------------------------------*/
 887:Middlewares/Third_Party/FatFs/src/ff.c **** /* FAT access - Read value of a FAT entry                                */
 888:Middlewares/Third_Party/FatFs/src/ff.c **** /*-----------------------------------------------------------------------*/
 889:Middlewares/Third_Party/FatFs/src/ff.c **** /* Hidden API for hacks and disk tools */
 890:Middlewares/Third_Party/FatFs/src/ff.c **** 
 891:Middlewares/Third_Party/FatFs/src/ff.c **** DWORD get_fat (	/* 0xFFFFFFFF:Disk error, 1:Internal error, 2..0x0FFFFFFF:Cluster status */
 892:Middlewares/Third_Party/FatFs/src/ff.c **** 	FATFS* fs,	/* File system object */
ARM GAS  /tmp/cciFFPmJ.s 			page 32


 893:Middlewares/Third_Party/FatFs/src/ff.c **** 	DWORD clst	/* FAT index number (cluster number) to get the value */
 894:Middlewares/Third_Party/FatFs/src/ff.c **** )
 895:Middlewares/Third_Party/FatFs/src/ff.c **** {
 896:Middlewares/Third_Party/FatFs/src/ff.c **** 	UINT wc, bc;
 897:Middlewares/Third_Party/FatFs/src/ff.c **** 	BYTE *p;
 898:Middlewares/Third_Party/FatFs/src/ff.c **** 	DWORD val;
 899:Middlewares/Third_Party/FatFs/src/ff.c **** 
 900:Middlewares/Third_Party/FatFs/src/ff.c **** 
 901:Middlewares/Third_Party/FatFs/src/ff.c **** 	if (clst < 2 || clst >= fs->n_fatent) {	/* Check range */
 902:Middlewares/Third_Party/FatFs/src/ff.c **** 		val = 1;	/* Internal error */
 903:Middlewares/Third_Party/FatFs/src/ff.c **** 
 904:Middlewares/Third_Party/FatFs/src/ff.c **** 	} else {
 905:Middlewares/Third_Party/FatFs/src/ff.c **** 		val = 0xFFFFFFFF;	/* Default value falls on disk error */
 906:Middlewares/Third_Party/FatFs/src/ff.c **** 
 907:Middlewares/Third_Party/FatFs/src/ff.c **** 		switch (fs->fs_type) {
 908:Middlewares/Third_Party/FatFs/src/ff.c **** 		case FS_FAT12 :
 909:Middlewares/Third_Party/FatFs/src/ff.c **** 			bc = (UINT)clst; bc += bc / 2;
 910:Middlewares/Third_Party/FatFs/src/ff.c **** 			if (move_window(fs, fs->fatbase + (bc / SS(fs))) != FR_OK) break;
 911:Middlewares/Third_Party/FatFs/src/ff.c **** 			wc = fs->win.d8[bc++ % SS(fs)];
 912:Middlewares/Third_Party/FatFs/src/ff.c **** 			if (move_window(fs, fs->fatbase + (bc / SS(fs))) != FR_OK) break;
 913:Middlewares/Third_Party/FatFs/src/ff.c **** 			wc |= fs->win.d8[bc % SS(fs)] << 8;
 914:Middlewares/Third_Party/FatFs/src/ff.c **** 			val = clst & 1 ? wc >> 4 : (wc & 0xFFF);
 915:Middlewares/Third_Party/FatFs/src/ff.c **** 			break;
 916:Middlewares/Third_Party/FatFs/src/ff.c **** 
 917:Middlewares/Third_Party/FatFs/src/ff.c **** 		case FS_FAT16 :
 918:Middlewares/Third_Party/FatFs/src/ff.c **** 			if (move_window(fs, fs->fatbase + (clst / (SS(fs) / 2))) != FR_OK) break;
 919:Middlewares/Third_Party/FatFs/src/ff.c **** 			p = &fs->win.d8[clst * 2 % SS(fs)];
 920:Middlewares/Third_Party/FatFs/src/ff.c **** 			val = LD_WORD(p);
 921:Middlewares/Third_Party/FatFs/src/ff.c **** 			break;
 922:Middlewares/Third_Party/FatFs/src/ff.c **** 
 923:Middlewares/Third_Party/FatFs/src/ff.c **** 		case FS_FAT32 :
 924:Middlewares/Third_Party/FatFs/src/ff.c **** 			if (move_window(fs, fs->fatbase + (clst / (SS(fs) / 4))) != FR_OK) break;
 925:Middlewares/Third_Party/FatFs/src/ff.c **** 			p = &fs->win.d8[clst * 4 % SS(fs)];
 926:Middlewares/Third_Party/FatFs/src/ff.c **** 			val = LD_DWORD(p) & 0x0FFFFFFF;
 927:Middlewares/Third_Party/FatFs/src/ff.c **** 			break;
 928:Middlewares/Third_Party/FatFs/src/ff.c **** 
 929:Middlewares/Third_Party/FatFs/src/ff.c **** 		default:
 930:Middlewares/Third_Party/FatFs/src/ff.c **** 			val = 1;	/* Internal error */
 931:Middlewares/Third_Party/FatFs/src/ff.c **** 		}
 932:Middlewares/Third_Party/FatFs/src/ff.c **** 	}
 933:Middlewares/Third_Party/FatFs/src/ff.c **** 
 934:Middlewares/Third_Party/FatFs/src/ff.c **** 	return val;
 935:Middlewares/Third_Party/FatFs/src/ff.c **** }
 936:Middlewares/Third_Party/FatFs/src/ff.c **** 
 937:Middlewares/Third_Party/FatFs/src/ff.c **** 
 938:Middlewares/Third_Party/FatFs/src/ff.c **** 
 939:Middlewares/Third_Party/FatFs/src/ff.c **** 
 940:Middlewares/Third_Party/FatFs/src/ff.c **** /*-----------------------------------------------------------------------*/
 941:Middlewares/Third_Party/FatFs/src/ff.c **** /* FAT access - Change value of a FAT entry                              */
 942:Middlewares/Third_Party/FatFs/src/ff.c **** /*-----------------------------------------------------------------------*/
 943:Middlewares/Third_Party/FatFs/src/ff.c **** /* Hidden API for hacks and disk tools */
 944:Middlewares/Third_Party/FatFs/src/ff.c **** 
 945:Middlewares/Third_Party/FatFs/src/ff.c **** #if !_FS_READONLY
 946:Middlewares/Third_Party/FatFs/src/ff.c **** FRESULT put_fat (
 947:Middlewares/Third_Party/FatFs/src/ff.c **** 	FATFS* fs,	/* File system object */
 948:Middlewares/Third_Party/FatFs/src/ff.c **** 	DWORD clst,	/* FAT index number (cluster number) to be changed */
 949:Middlewares/Third_Party/FatFs/src/ff.c **** 	DWORD val	/* New value to be set to the entry */
ARM GAS  /tmp/cciFFPmJ.s 			page 33


 950:Middlewares/Third_Party/FatFs/src/ff.c **** )
 951:Middlewares/Third_Party/FatFs/src/ff.c **** {
 952:Middlewares/Third_Party/FatFs/src/ff.c **** 	UINT bc;
 953:Middlewares/Third_Party/FatFs/src/ff.c **** 	BYTE *p;
 954:Middlewares/Third_Party/FatFs/src/ff.c **** 	FRESULT res;
 955:Middlewares/Third_Party/FatFs/src/ff.c **** 
 956:Middlewares/Third_Party/FatFs/src/ff.c **** 
 957:Middlewares/Third_Party/FatFs/src/ff.c **** 	if (clst < 2 || clst >= fs->n_fatent) {	/* Check range */
 958:Middlewares/Third_Party/FatFs/src/ff.c **** 		res = FR_INT_ERR;
 959:Middlewares/Third_Party/FatFs/src/ff.c **** 
 960:Middlewares/Third_Party/FatFs/src/ff.c **** 	} else {
 961:Middlewares/Third_Party/FatFs/src/ff.c **** 		switch (fs->fs_type) {
 962:Middlewares/Third_Party/FatFs/src/ff.c **** 		case FS_FAT12 :
 963:Middlewares/Third_Party/FatFs/src/ff.c **** 			bc = (UINT)clst; bc += bc / 2;
 964:Middlewares/Third_Party/FatFs/src/ff.c **** 			res = move_window(fs, fs->fatbase + (bc / SS(fs)));
 965:Middlewares/Third_Party/FatFs/src/ff.c **** 			if (res != FR_OK) break;
 966:Middlewares/Third_Party/FatFs/src/ff.c **** 			p = &fs->win.d8[bc++ % SS(fs)];
 967:Middlewares/Third_Party/FatFs/src/ff.c **** 			*p = (clst & 1) ? ((*p & 0x0F) | ((BYTE)val << 4)) : (BYTE)val;
 968:Middlewares/Third_Party/FatFs/src/ff.c **** 			fs->wflag = 1;
 969:Middlewares/Third_Party/FatFs/src/ff.c **** 			res = move_window(fs, fs->fatbase + (bc / SS(fs)));
 970:Middlewares/Third_Party/FatFs/src/ff.c **** 			if (res != FR_OK) break;
 971:Middlewares/Third_Party/FatFs/src/ff.c **** 			p = &fs->win.d8[bc % SS(fs)];
 972:Middlewares/Third_Party/FatFs/src/ff.c **** 			*p = (clst & 1) ? (BYTE)(val >> 4) : ((*p & 0xF0) | ((BYTE)(val >> 8) & 0x0F));
 973:Middlewares/Third_Party/FatFs/src/ff.c **** 			fs->wflag = 1;
 974:Middlewares/Third_Party/FatFs/src/ff.c **** 			break;
 975:Middlewares/Third_Party/FatFs/src/ff.c **** 
 976:Middlewares/Third_Party/FatFs/src/ff.c **** 		case FS_FAT16 :
 977:Middlewares/Third_Party/FatFs/src/ff.c **** 			res = move_window(fs, fs->fatbase + (clst / (SS(fs) / 2)));
 978:Middlewares/Third_Party/FatFs/src/ff.c **** 			if (res != FR_OK) break;
 979:Middlewares/Third_Party/FatFs/src/ff.c **** 			p = &fs->win.d8[clst * 2 % SS(fs)];
 980:Middlewares/Third_Party/FatFs/src/ff.c **** 			ST_WORD(p, (WORD)val);
 981:Middlewares/Third_Party/FatFs/src/ff.c **** 			fs->wflag = 1;
 982:Middlewares/Third_Party/FatFs/src/ff.c **** 			break;
 983:Middlewares/Third_Party/FatFs/src/ff.c **** 
 984:Middlewares/Third_Party/FatFs/src/ff.c **** 		case FS_FAT32 :
 985:Middlewares/Third_Party/FatFs/src/ff.c **** 			res = move_window(fs, fs->fatbase + (clst / (SS(fs) / 4)));
 986:Middlewares/Third_Party/FatFs/src/ff.c **** 			if (res != FR_OK) break;
 987:Middlewares/Third_Party/FatFs/src/ff.c **** 			p = &fs->win.d8[clst * 4 % SS(fs)];
 988:Middlewares/Third_Party/FatFs/src/ff.c **** 			val |= LD_DWORD(p) & 0xF0000000;
 989:Middlewares/Third_Party/FatFs/src/ff.c **** 			ST_DWORD(p, val);
 990:Middlewares/Third_Party/FatFs/src/ff.c **** 			fs->wflag = 1;
 991:Middlewares/Third_Party/FatFs/src/ff.c **** 			break;
 992:Middlewares/Third_Party/FatFs/src/ff.c **** 
 993:Middlewares/Third_Party/FatFs/src/ff.c **** 		default :
 994:Middlewares/Third_Party/FatFs/src/ff.c **** 			res = FR_INT_ERR;
 995:Middlewares/Third_Party/FatFs/src/ff.c **** 		}
 996:Middlewares/Third_Party/FatFs/src/ff.c **** 	}
 997:Middlewares/Third_Party/FatFs/src/ff.c **** 
 998:Middlewares/Third_Party/FatFs/src/ff.c **** 	return res;
 999:Middlewares/Third_Party/FatFs/src/ff.c **** }
1000:Middlewares/Third_Party/FatFs/src/ff.c **** #endif /* !_FS_READONLY */
1001:Middlewares/Third_Party/FatFs/src/ff.c **** 
1002:Middlewares/Third_Party/FatFs/src/ff.c **** 
1003:Middlewares/Third_Party/FatFs/src/ff.c **** 
1004:Middlewares/Third_Party/FatFs/src/ff.c **** 
1005:Middlewares/Third_Party/FatFs/src/ff.c **** /*-----------------------------------------------------------------------*/
1006:Middlewares/Third_Party/FatFs/src/ff.c **** /* FAT handling - Remove a cluster chain                                 */
ARM GAS  /tmp/cciFFPmJ.s 			page 34


1007:Middlewares/Third_Party/FatFs/src/ff.c **** /*-----------------------------------------------------------------------*/
1008:Middlewares/Third_Party/FatFs/src/ff.c **** #if !_FS_READONLY
1009:Middlewares/Third_Party/FatFs/src/ff.c **** static
1010:Middlewares/Third_Party/FatFs/src/ff.c **** FRESULT remove_chain (
1011:Middlewares/Third_Party/FatFs/src/ff.c **** 	FATFS* fs,			/* File system object */
1012:Middlewares/Third_Party/FatFs/src/ff.c **** 	DWORD clst			/* Cluster# to remove a chain from */
1013:Middlewares/Third_Party/FatFs/src/ff.c **** )
1014:Middlewares/Third_Party/FatFs/src/ff.c **** {
1015:Middlewares/Third_Party/FatFs/src/ff.c **** 	FRESULT res;
1016:Middlewares/Third_Party/FatFs/src/ff.c **** 	DWORD nxt;
1017:Middlewares/Third_Party/FatFs/src/ff.c **** #if _USE_TRIM
1018:Middlewares/Third_Party/FatFs/src/ff.c **** 	DWORD scl = clst, ecl = clst, rt[2];
1019:Middlewares/Third_Party/FatFs/src/ff.c **** #endif
1020:Middlewares/Third_Party/FatFs/src/ff.c **** 
1021:Middlewares/Third_Party/FatFs/src/ff.c **** 	if (clst < 2 || clst >= fs->n_fatent) {	/* Check range */
1022:Middlewares/Third_Party/FatFs/src/ff.c **** 		res = FR_INT_ERR;
1023:Middlewares/Third_Party/FatFs/src/ff.c **** 
1024:Middlewares/Third_Party/FatFs/src/ff.c **** 	} else {
1025:Middlewares/Third_Party/FatFs/src/ff.c **** 		res = FR_OK;
1026:Middlewares/Third_Party/FatFs/src/ff.c **** 		while (clst < fs->n_fatent) {			/* Not a last link? */
1027:Middlewares/Third_Party/FatFs/src/ff.c **** 			nxt = get_fat(fs, clst);			/* Get cluster status */
1028:Middlewares/Third_Party/FatFs/src/ff.c **** 			if (nxt == 0) break;				/* Empty cluster? */
1029:Middlewares/Third_Party/FatFs/src/ff.c **** 			if (nxt == 1) { res = FR_INT_ERR; break; }	/* Internal error? */
1030:Middlewares/Third_Party/FatFs/src/ff.c **** 			if (nxt == 0xFFFFFFFF) { res = FR_DISK_ERR; break; }	/* Disk error? */
1031:Middlewares/Third_Party/FatFs/src/ff.c **** 			res = put_fat(fs, clst, 0);			/* Mark the cluster "empty" */
1032:Middlewares/Third_Party/FatFs/src/ff.c **** 			if (res != FR_OK) break;
1033:Middlewares/Third_Party/FatFs/src/ff.c **** 			if (fs->free_clust != 0xFFFFFFFF) {	/* Update FSINFO */
1034:Middlewares/Third_Party/FatFs/src/ff.c **** 				fs->free_clust++;
1035:Middlewares/Third_Party/FatFs/src/ff.c **** 				fs->fsi_flag |= 1;
1036:Middlewares/Third_Party/FatFs/src/ff.c **** 			}
1037:Middlewares/Third_Party/FatFs/src/ff.c **** #if _USE_TRIM
1038:Middlewares/Third_Party/FatFs/src/ff.c **** 			if (ecl + 1 == nxt) {	/* Is next cluster contiguous? */
1039:Middlewares/Third_Party/FatFs/src/ff.c **** 				ecl = nxt;
1040:Middlewares/Third_Party/FatFs/src/ff.c **** 			} else {				/* End of contiguous clusters */ 
1041:Middlewares/Third_Party/FatFs/src/ff.c **** 				rt[0] = clust2sect(fs, scl);					/* Start sector */
1042:Middlewares/Third_Party/FatFs/src/ff.c **** 				rt[1] = clust2sect(fs, ecl) + fs->csize - 1;	/* End sector */
1043:Middlewares/Third_Party/FatFs/src/ff.c **** 				disk_ioctl(fs->drv, CTRL_TRIM, rt);				/* Erase the block */
1044:Middlewares/Third_Party/FatFs/src/ff.c **** 				scl = ecl = nxt;
1045:Middlewares/Third_Party/FatFs/src/ff.c **** 			}
1046:Middlewares/Third_Party/FatFs/src/ff.c **** #endif
1047:Middlewares/Third_Party/FatFs/src/ff.c **** 			clst = nxt;	/* Next cluster */
1048:Middlewares/Third_Party/FatFs/src/ff.c **** 		}
1049:Middlewares/Third_Party/FatFs/src/ff.c **** 	}
1050:Middlewares/Third_Party/FatFs/src/ff.c **** 
1051:Middlewares/Third_Party/FatFs/src/ff.c **** 	return res;
1052:Middlewares/Third_Party/FatFs/src/ff.c **** }
1053:Middlewares/Third_Party/FatFs/src/ff.c **** #endif
1054:Middlewares/Third_Party/FatFs/src/ff.c **** 
1055:Middlewares/Third_Party/FatFs/src/ff.c **** 
1056:Middlewares/Third_Party/FatFs/src/ff.c **** 
1057:Middlewares/Third_Party/FatFs/src/ff.c **** 
1058:Middlewares/Third_Party/FatFs/src/ff.c **** /*-----------------------------------------------------------------------*/
1059:Middlewares/Third_Party/FatFs/src/ff.c **** /* FAT handling - Stretch or Create a cluster chain                      */
1060:Middlewares/Third_Party/FatFs/src/ff.c **** /*-----------------------------------------------------------------------*/
1061:Middlewares/Third_Party/FatFs/src/ff.c **** #if !_FS_READONLY
1062:Middlewares/Third_Party/FatFs/src/ff.c **** static
1063:Middlewares/Third_Party/FatFs/src/ff.c **** DWORD create_chain (	/* 0:No free cluster, 1:Internal error, 0xFFFFFFFF:Disk error, >=2:New cluster
ARM GAS  /tmp/cciFFPmJ.s 			page 35


1064:Middlewares/Third_Party/FatFs/src/ff.c **** 	FATFS* fs,			/* File system object */
1065:Middlewares/Third_Party/FatFs/src/ff.c **** 	DWORD clst			/* Cluster# to stretch. 0 means create a new chain. */
1066:Middlewares/Third_Party/FatFs/src/ff.c **** )
1067:Middlewares/Third_Party/FatFs/src/ff.c **** {
1068:Middlewares/Third_Party/FatFs/src/ff.c **** 	DWORD cs, ncl, scl;
1069:Middlewares/Third_Party/FatFs/src/ff.c **** 	FRESULT res;
1070:Middlewares/Third_Party/FatFs/src/ff.c **** 
1071:Middlewares/Third_Party/FatFs/src/ff.c **** 
1072:Middlewares/Third_Party/FatFs/src/ff.c **** 	if (clst == 0) {		/* Create a new chain */
1073:Middlewares/Third_Party/FatFs/src/ff.c **** 		scl = fs->last_clust;			/* Get suggested start point */
1074:Middlewares/Third_Party/FatFs/src/ff.c **** 		if (!scl || scl >= fs->n_fatent) scl = 1;
1075:Middlewares/Third_Party/FatFs/src/ff.c **** 	}
1076:Middlewares/Third_Party/FatFs/src/ff.c **** 	else {					/* Stretch the current chain */
1077:Middlewares/Third_Party/FatFs/src/ff.c **** 		cs = get_fat(fs, clst);			/* Check the cluster status */
1078:Middlewares/Third_Party/FatFs/src/ff.c **** 		if (cs < 2) return 1;			/* Invalid value */
1079:Middlewares/Third_Party/FatFs/src/ff.c **** 		if (cs == 0xFFFFFFFF) return cs;	/* A disk error occurred */
1080:Middlewares/Third_Party/FatFs/src/ff.c **** 		if (cs < fs->n_fatent) return cs;	/* It is already followed by next cluster */
1081:Middlewares/Third_Party/FatFs/src/ff.c **** 		scl = clst;
1082:Middlewares/Third_Party/FatFs/src/ff.c **** 	}
1083:Middlewares/Third_Party/FatFs/src/ff.c **** 
1084:Middlewares/Third_Party/FatFs/src/ff.c **** 	ncl = scl;				/* Start cluster */
1085:Middlewares/Third_Party/FatFs/src/ff.c **** 	for (;;) {
1086:Middlewares/Third_Party/FatFs/src/ff.c **** 		ncl++;							/* Next cluster */
1087:Middlewares/Third_Party/FatFs/src/ff.c **** 		if (ncl >= fs->n_fatent) {		/* Check wrap around */
1088:Middlewares/Third_Party/FatFs/src/ff.c **** 			ncl = 2;
1089:Middlewares/Third_Party/FatFs/src/ff.c **** 			if (ncl > scl) return 0;	/* No free cluster */
1090:Middlewares/Third_Party/FatFs/src/ff.c **** 		}
1091:Middlewares/Third_Party/FatFs/src/ff.c **** 		cs = get_fat(fs, ncl);			/* Get the cluster status */
1092:Middlewares/Third_Party/FatFs/src/ff.c **** 		if (cs == 0) break;				/* Found a free cluster */
1093:Middlewares/Third_Party/FatFs/src/ff.c **** 		if (cs == 0xFFFFFFFF || cs == 1)/* An error occurred */
1094:Middlewares/Third_Party/FatFs/src/ff.c **** 			return cs;
1095:Middlewares/Third_Party/FatFs/src/ff.c **** 		if (ncl == scl) return 0;		/* No free cluster */
1096:Middlewares/Third_Party/FatFs/src/ff.c **** 	}
1097:Middlewares/Third_Party/FatFs/src/ff.c **** 
1098:Middlewares/Third_Party/FatFs/src/ff.c **** 	res = put_fat(fs, ncl, 0x0FFFFFFF);	/* Mark the new cluster "last link" */
1099:Middlewares/Third_Party/FatFs/src/ff.c **** 	if (res == FR_OK && clst != 0) {
1100:Middlewares/Third_Party/FatFs/src/ff.c **** 		res = put_fat(fs, clst, ncl);	/* Link it to the previous one if needed */
1101:Middlewares/Third_Party/FatFs/src/ff.c **** 	}
1102:Middlewares/Third_Party/FatFs/src/ff.c **** 	if (res == FR_OK) {
1103:Middlewares/Third_Party/FatFs/src/ff.c **** 		fs->last_clust = ncl;			/* Update FSINFO */
1104:Middlewares/Third_Party/FatFs/src/ff.c **** 		if (fs->free_clust != 0xFFFFFFFF) {
1105:Middlewares/Third_Party/FatFs/src/ff.c **** 			fs->free_clust--;
1106:Middlewares/Third_Party/FatFs/src/ff.c **** 			fs->fsi_flag |= 1;
1107:Middlewares/Third_Party/FatFs/src/ff.c **** 		}
1108:Middlewares/Third_Party/FatFs/src/ff.c **** 	} else {
1109:Middlewares/Third_Party/FatFs/src/ff.c **** 		ncl = (res == FR_DISK_ERR) ? 0xFFFFFFFF : 1;
1110:Middlewares/Third_Party/FatFs/src/ff.c **** 	}
1111:Middlewares/Third_Party/FatFs/src/ff.c **** 
1112:Middlewares/Third_Party/FatFs/src/ff.c **** 	return ncl;		/* Return new cluster number or error code */
1113:Middlewares/Third_Party/FatFs/src/ff.c **** }
1114:Middlewares/Third_Party/FatFs/src/ff.c **** #endif /* !_FS_READONLY */
1115:Middlewares/Third_Party/FatFs/src/ff.c **** 
1116:Middlewares/Third_Party/FatFs/src/ff.c **** 
1117:Middlewares/Third_Party/FatFs/src/ff.c **** 
1118:Middlewares/Third_Party/FatFs/src/ff.c **** 
1119:Middlewares/Third_Party/FatFs/src/ff.c **** /*-----------------------------------------------------------------------*/
1120:Middlewares/Third_Party/FatFs/src/ff.c **** /* FAT handling - Convert offset into cluster with link map table        */
ARM GAS  /tmp/cciFFPmJ.s 			page 36


1121:Middlewares/Third_Party/FatFs/src/ff.c **** /*-----------------------------------------------------------------------*/
1122:Middlewares/Third_Party/FatFs/src/ff.c **** 
1123:Middlewares/Third_Party/FatFs/src/ff.c **** #if _USE_FASTSEEK
1124:Middlewares/Third_Party/FatFs/src/ff.c **** static
1125:Middlewares/Third_Party/FatFs/src/ff.c **** DWORD clmt_clust (	/* <2:Error, >=2:Cluster number */
1126:Middlewares/Third_Party/FatFs/src/ff.c **** 	FIL* fp,		/* Pointer to the file object */
1127:Middlewares/Third_Party/FatFs/src/ff.c **** 	DWORD ofs		/* File offset to be converted to cluster# */
1128:Middlewares/Third_Party/FatFs/src/ff.c **** )
1129:Middlewares/Third_Party/FatFs/src/ff.c **** {
 814              		.loc 1 1129 1 is_stmt 1 view -0
 815              		.cfi_startproc
 816              		@ args = 0, pretend = 0, frame = 0
 817              		@ frame_needed = 0, uses_anonymous_args = 0
 818              		@ link register save eliminated.
1130:Middlewares/Third_Party/FatFs/src/ff.c **** 	DWORD cl, ncl, *tbl;
 819              		.loc 1 1130 2 view .LVU229
1131:Middlewares/Third_Party/FatFs/src/ff.c **** 
1132:Middlewares/Third_Party/FatFs/src/ff.c **** 
1133:Middlewares/Third_Party/FatFs/src/ff.c **** 	tbl = fp->cltbl + 1;	/* Top of CLMT */
 820              		.loc 1 1133 2 view .LVU230
 821              		.loc 1 1133 10 is_stmt 0 view .LVU231
 822 0000 D0F82432 		ldr	r3, [r0, #548]
 823              		.loc 1 1133 6 view .LVU232
 824 0004 0433     		adds	r3, r3, #4
 825              	.LVL74:
1134:Middlewares/Third_Party/FatFs/src/ff.c **** 	cl = ofs / SS(fp->fs) / fp->fs->csize;	/* Cluster order from top of the file */
 826              		.loc 1 1134 2 is_stmt 1 view .LVU233
 827              		.loc 1 1134 11 is_stmt 0 view .LVU234
 828 0006 490A     		lsrs	r1, r1, #9
 829              	.LVL75:
 830              		.loc 1 1134 28 view .LVU235
 831 0008 D0F80022 		ldr	r2, [r0, #512]
 832              		.loc 1 1134 32 view .LVU236
 833 000c 92F80222 		ldrb	r2, [r2, #514]	@ zero_extendqisi2
 834              		.loc 1 1134 5 view .LVU237
 835 0010 B1FBF2F1 		udiv	r1, r1, r2
 836              	.LVL76:
 837              	.L89:
1135:Middlewares/Third_Party/FatFs/src/ff.c **** 	for (;;) {
 838              		.loc 1 1135 2 is_stmt 1 view .LVU238
1136:Middlewares/Third_Party/FatFs/src/ff.c **** 		ncl = *tbl++;			/* Number of cluters in the fragment */
 839              		.loc 1 1136 3 view .LVU239
 840              		.loc 1 1136 7 is_stmt 0 view .LVU240
 841 0014 1868     		ldr	r0, [r3]
 842              	.LVL77:
1137:Middlewares/Third_Party/FatFs/src/ff.c **** 		if (!ncl) return 0;		/* End of table? (error) */
 843              		.loc 1 1137 3 is_stmt 1 view .LVU241
 844              		.loc 1 1137 6 is_stmt 0 view .LVU242
 845 0016 30B1     		cbz	r0, .L86
1138:Middlewares/Third_Party/FatFs/src/ff.c **** 		if (cl < ncl) break;	/* In this fragment? */
 846              		.loc 1 1138 3 is_stmt 1 view .LVU243
 847              		.loc 1 1138 6 is_stmt 0 view .LVU244
 848 0018 8142     		cmp	r1, r0
 849 001a 02D3     		bcc	.L88
1139:Middlewares/Third_Party/FatFs/src/ff.c **** 		cl -= ncl; tbl++;		/* Next fragment */
 850              		.loc 1 1139 3 is_stmt 1 view .LVU245
 851              		.loc 1 1139 6 is_stmt 0 view .LVU246
ARM GAS  /tmp/cciFFPmJ.s 			page 37


 852 001c 091A     		subs	r1, r1, r0
 853              	.LVL78:
 854              		.loc 1 1139 14 is_stmt 1 view .LVU247
 855              		.loc 1 1139 17 is_stmt 0 view .LVU248
 856 001e 0833     		adds	r3, r3, #8
 857              	.LVL79:
1135:Middlewares/Third_Party/FatFs/src/ff.c **** 		ncl = *tbl++;			/* Number of cluters in the fragment */
 858              		.loc 1 1135 8 is_stmt 1 view .LVU249
1136:Middlewares/Third_Party/FatFs/src/ff.c **** 		if (!ncl) return 0;		/* End of table? (error) */
 859              		.loc 1 1136 7 is_stmt 0 view .LVU250
 860 0020 F8E7     		b	.L89
 861              	.LVL80:
 862              	.L88:
1140:Middlewares/Third_Party/FatFs/src/ff.c **** 	}
1141:Middlewares/Third_Party/FatFs/src/ff.c **** 	return cl + *tbl;	/* Return the cluster number */
 863              		.loc 1 1141 2 is_stmt 1 view .LVU251
 864              		.loc 1 1141 14 is_stmt 0 view .LVU252
 865 0022 5868     		ldr	r0, [r3, #4]
 866              	.LVL81:
 867              		.loc 1 1141 12 view .LVU253
 868 0024 0844     		add	r0, r0, r1
 869              	.L86:
1142:Middlewares/Third_Party/FatFs/src/ff.c **** }
 870              		.loc 1 1142 1 view .LVU254
 871 0026 7047     		bx	lr
 872              		.cfi_endproc
 873              	.LFE82:
 875              		.section	.text.ld_clust,"ax",%progbits
 876              		.align	1
 877              		.syntax unified
 878              		.thumb
 879              		.thumb_func
 880              		.fpu softvfp
 882              	ld_clust:
 883              	.LVL82:
 884              	.LFB86:
1143:Middlewares/Third_Party/FatFs/src/ff.c **** #endif	/* _USE_FASTSEEK */
1144:Middlewares/Third_Party/FatFs/src/ff.c **** 
1145:Middlewares/Third_Party/FatFs/src/ff.c **** 
1146:Middlewares/Third_Party/FatFs/src/ff.c **** 
1147:Middlewares/Third_Party/FatFs/src/ff.c **** 
1148:Middlewares/Third_Party/FatFs/src/ff.c **** /*-----------------------------------------------------------------------*/
1149:Middlewares/Third_Party/FatFs/src/ff.c **** /* Directory handling - Set directory index                              */
1150:Middlewares/Third_Party/FatFs/src/ff.c **** /*-----------------------------------------------------------------------*/
1151:Middlewares/Third_Party/FatFs/src/ff.c **** 
1152:Middlewares/Third_Party/FatFs/src/ff.c **** static
1153:Middlewares/Third_Party/FatFs/src/ff.c **** FRESULT dir_sdi (
1154:Middlewares/Third_Party/FatFs/src/ff.c **** 	DIR* dp,		/* Pointer to directory object */
1155:Middlewares/Third_Party/FatFs/src/ff.c **** 	UINT idx		/* Index of directory table */
1156:Middlewares/Third_Party/FatFs/src/ff.c **** )
1157:Middlewares/Third_Party/FatFs/src/ff.c **** {
1158:Middlewares/Third_Party/FatFs/src/ff.c **** 	DWORD clst, sect;
1159:Middlewares/Third_Party/FatFs/src/ff.c **** 	UINT ic;
1160:Middlewares/Third_Party/FatFs/src/ff.c **** 
1161:Middlewares/Third_Party/FatFs/src/ff.c **** 
1162:Middlewares/Third_Party/FatFs/src/ff.c **** 	dp->index = (WORD)idx;	/* Current index */
1163:Middlewares/Third_Party/FatFs/src/ff.c **** 	clst = dp->sclust;		/* Table start cluster (0:root) */
ARM GAS  /tmp/cciFFPmJ.s 			page 38


1164:Middlewares/Third_Party/FatFs/src/ff.c **** 	if (clst == 1 || clst >= dp->fs->n_fatent)	/* Check start cluster range */
1165:Middlewares/Third_Party/FatFs/src/ff.c **** 		return FR_INT_ERR;
1166:Middlewares/Third_Party/FatFs/src/ff.c **** 	if (!clst && dp->fs->fs_type == FS_FAT32)	/* Replace cluster# 0 with root cluster# if in FAT32 */
1167:Middlewares/Third_Party/FatFs/src/ff.c **** 		clst = dp->fs->dirbase;
1168:Middlewares/Third_Party/FatFs/src/ff.c **** 
1169:Middlewares/Third_Party/FatFs/src/ff.c **** 	if (clst == 0) {	/* Static table (root-directory in FAT12/16) */
1170:Middlewares/Third_Party/FatFs/src/ff.c **** 		if (idx >= dp->fs->n_rootdir)	/* Is index out of range? */
1171:Middlewares/Third_Party/FatFs/src/ff.c **** 			return FR_INT_ERR;
1172:Middlewares/Third_Party/FatFs/src/ff.c **** 		sect = dp->fs->dirbase;
1173:Middlewares/Third_Party/FatFs/src/ff.c **** 	}
1174:Middlewares/Third_Party/FatFs/src/ff.c **** 	else {				/* Dynamic table (root-directory in FAT32 or sub-directory) */
1175:Middlewares/Third_Party/FatFs/src/ff.c **** 		ic = SS(dp->fs) / SZ_DIRE * dp->fs->csize;	/* Entries per cluster */
1176:Middlewares/Third_Party/FatFs/src/ff.c **** 		while (idx >= ic) {	/* Follow cluster chain */
1177:Middlewares/Third_Party/FatFs/src/ff.c **** 			clst = get_fat(dp->fs, clst);				/* Get next cluster */
1178:Middlewares/Third_Party/FatFs/src/ff.c **** 			if (clst == 0xFFFFFFFF) return FR_DISK_ERR;	/* Disk error */
1179:Middlewares/Third_Party/FatFs/src/ff.c **** 			if (clst < 2 || clst >= dp->fs->n_fatent)	/* Reached to end of table or internal error */
1180:Middlewares/Third_Party/FatFs/src/ff.c **** 				return FR_INT_ERR;
1181:Middlewares/Third_Party/FatFs/src/ff.c **** 			idx -= ic;
1182:Middlewares/Third_Party/FatFs/src/ff.c **** 		}
1183:Middlewares/Third_Party/FatFs/src/ff.c **** 		sect = clust2sect(dp->fs, clst);
1184:Middlewares/Third_Party/FatFs/src/ff.c **** 	}
1185:Middlewares/Third_Party/FatFs/src/ff.c **** 	dp->clust = clst;	/* Current cluster# */
1186:Middlewares/Third_Party/FatFs/src/ff.c **** 	if (!sect) return FR_INT_ERR;
1187:Middlewares/Third_Party/FatFs/src/ff.c **** 	dp->sect = sect + idx / (SS(dp->fs) / SZ_DIRE);					/* Sector# of the directory entry */
1188:Middlewares/Third_Party/FatFs/src/ff.c **** 	dp->dir = dp->fs->win.d8 + (idx % (SS(dp->fs) / SZ_DIRE)) * SZ_DIRE;	/* Ptr to the entry in the se
1189:Middlewares/Third_Party/FatFs/src/ff.c **** 
1190:Middlewares/Third_Party/FatFs/src/ff.c **** 	return FR_OK;
1191:Middlewares/Third_Party/FatFs/src/ff.c **** }
1192:Middlewares/Third_Party/FatFs/src/ff.c **** 
1193:Middlewares/Third_Party/FatFs/src/ff.c **** 
1194:Middlewares/Third_Party/FatFs/src/ff.c **** 
1195:Middlewares/Third_Party/FatFs/src/ff.c **** 
1196:Middlewares/Third_Party/FatFs/src/ff.c **** /*-----------------------------------------------------------------------*/
1197:Middlewares/Third_Party/FatFs/src/ff.c **** /* Directory handling - Move directory table index next                  */
1198:Middlewares/Third_Party/FatFs/src/ff.c **** /*-----------------------------------------------------------------------*/
1199:Middlewares/Third_Party/FatFs/src/ff.c **** 
1200:Middlewares/Third_Party/FatFs/src/ff.c **** static
1201:Middlewares/Third_Party/FatFs/src/ff.c **** FRESULT dir_next (	/* FR_OK:Succeeded, FR_NO_FILE:End of table, FR_DENIED:Could not stretch */
1202:Middlewares/Third_Party/FatFs/src/ff.c **** 	DIR* dp,		/* Pointer to the directory object */
1203:Middlewares/Third_Party/FatFs/src/ff.c **** 	int stretch		/* 0: Do not stretch table, 1: Stretch table if needed */
1204:Middlewares/Third_Party/FatFs/src/ff.c **** )
1205:Middlewares/Third_Party/FatFs/src/ff.c **** {
1206:Middlewares/Third_Party/FatFs/src/ff.c **** 	DWORD clst;
1207:Middlewares/Third_Party/FatFs/src/ff.c **** 	UINT i;
1208:Middlewares/Third_Party/FatFs/src/ff.c **** #if !_FS_READONLY
1209:Middlewares/Third_Party/FatFs/src/ff.c **** 	UINT c;
1210:Middlewares/Third_Party/FatFs/src/ff.c **** #endif
1211:Middlewares/Third_Party/FatFs/src/ff.c **** 
1212:Middlewares/Third_Party/FatFs/src/ff.c **** 
1213:Middlewares/Third_Party/FatFs/src/ff.c **** 	i = dp->index + 1;
1214:Middlewares/Third_Party/FatFs/src/ff.c **** 	if (!(i & 0xFFFF) || !dp->sect)	/* Report EOT when index has reached 65535 */
1215:Middlewares/Third_Party/FatFs/src/ff.c **** 		return FR_NO_FILE;
1216:Middlewares/Third_Party/FatFs/src/ff.c **** 
1217:Middlewares/Third_Party/FatFs/src/ff.c **** 	if (!(i % (SS(dp->fs) / SZ_DIRE))) {	/* Sector changed? */
1218:Middlewares/Third_Party/FatFs/src/ff.c **** 		dp->sect++;					/* Next sector */
1219:Middlewares/Third_Party/FatFs/src/ff.c **** 
1220:Middlewares/Third_Party/FatFs/src/ff.c **** 		if (!dp->clust) {		/* Static table */
ARM GAS  /tmp/cciFFPmJ.s 			page 39


1221:Middlewares/Third_Party/FatFs/src/ff.c **** 			if (i >= dp->fs->n_rootdir)	/* Report EOT if it reached end of static table */
1222:Middlewares/Third_Party/FatFs/src/ff.c **** 				return FR_NO_FILE;
1223:Middlewares/Third_Party/FatFs/src/ff.c **** 		}
1224:Middlewares/Third_Party/FatFs/src/ff.c **** 		else {					/* Dynamic table */
1225:Middlewares/Third_Party/FatFs/src/ff.c **** 			if (((i / (SS(dp->fs) / SZ_DIRE)) & (dp->fs->csize - 1)) == 0) {	/* Cluster changed? */
1226:Middlewares/Third_Party/FatFs/src/ff.c **** 				clst = get_fat(dp->fs, dp->clust);				/* Get next cluster */
1227:Middlewares/Third_Party/FatFs/src/ff.c **** 				if (clst <= 1) return FR_INT_ERR;
1228:Middlewares/Third_Party/FatFs/src/ff.c **** 				if (clst == 0xFFFFFFFF) return FR_DISK_ERR;
1229:Middlewares/Third_Party/FatFs/src/ff.c **** 				if (clst >= dp->fs->n_fatent) {					/* If it reached end of dynamic table, */
1230:Middlewares/Third_Party/FatFs/src/ff.c **** #if !_FS_READONLY
1231:Middlewares/Third_Party/FatFs/src/ff.c **** 					if (!stretch) return FR_NO_FILE;			/* If do not stretch, report EOT */
1232:Middlewares/Third_Party/FatFs/src/ff.c **** 					clst = create_chain(dp->fs, dp->clust);		/* Stretch cluster chain */
1233:Middlewares/Third_Party/FatFs/src/ff.c **** 					if (clst == 0) return FR_DENIED;			/* No free cluster */
1234:Middlewares/Third_Party/FatFs/src/ff.c **** 					if (clst == 1) return FR_INT_ERR;
1235:Middlewares/Third_Party/FatFs/src/ff.c **** 					if (clst == 0xFFFFFFFF) return FR_DISK_ERR;
1236:Middlewares/Third_Party/FatFs/src/ff.c **** 					/* Clean-up stretched table */
1237:Middlewares/Third_Party/FatFs/src/ff.c **** 					if (sync_window(dp->fs)) return FR_DISK_ERR;/* Flush disk access window */
1238:Middlewares/Third_Party/FatFs/src/ff.c **** 					mem_set(dp->fs->win.d8, 0, SS(dp->fs));		/* Clear window buffer */
1239:Middlewares/Third_Party/FatFs/src/ff.c **** 					dp->fs->winsect = clust2sect(dp->fs, clst);	/* Cluster start sector */
1240:Middlewares/Third_Party/FatFs/src/ff.c **** 					for (c = 0; c < dp->fs->csize; c++) {		/* Fill the new cluster with 0 */
1241:Middlewares/Third_Party/FatFs/src/ff.c **** 						dp->fs->wflag = 1;
1242:Middlewares/Third_Party/FatFs/src/ff.c **** 						if (sync_window(dp->fs)) return FR_DISK_ERR;
1243:Middlewares/Third_Party/FatFs/src/ff.c **** 						dp->fs->winsect++;
1244:Middlewares/Third_Party/FatFs/src/ff.c **** 					}
1245:Middlewares/Third_Party/FatFs/src/ff.c **** 					dp->fs->winsect -= c;						/* Rewind window offset */
1246:Middlewares/Third_Party/FatFs/src/ff.c **** #else
1247:Middlewares/Third_Party/FatFs/src/ff.c **** 					if (!stretch) return FR_NO_FILE;			/* If do not stretch, report EOT (this is to suppress warni
1248:Middlewares/Third_Party/FatFs/src/ff.c **** 					return FR_NO_FILE;							/* Report EOT */
1249:Middlewares/Third_Party/FatFs/src/ff.c **** #endif
1250:Middlewares/Third_Party/FatFs/src/ff.c **** 				}
1251:Middlewares/Third_Party/FatFs/src/ff.c **** 				dp->clust = clst;				/* Initialize data for new cluster */
1252:Middlewares/Third_Party/FatFs/src/ff.c **** 				dp->sect = clust2sect(dp->fs, clst);
1253:Middlewares/Third_Party/FatFs/src/ff.c **** 			}
1254:Middlewares/Third_Party/FatFs/src/ff.c **** 		}
1255:Middlewares/Third_Party/FatFs/src/ff.c **** 	}
1256:Middlewares/Third_Party/FatFs/src/ff.c **** 
1257:Middlewares/Third_Party/FatFs/src/ff.c **** 	dp->index = (WORD)i;	/* Current index */
1258:Middlewares/Third_Party/FatFs/src/ff.c **** 	dp->dir = dp->fs->win.d8 + (i % (SS(dp->fs) / SZ_DIRE)) * SZ_DIRE;	/* Current entry in the window 
1259:Middlewares/Third_Party/FatFs/src/ff.c **** 
1260:Middlewares/Third_Party/FatFs/src/ff.c **** 	return FR_OK;
1261:Middlewares/Third_Party/FatFs/src/ff.c **** }
1262:Middlewares/Third_Party/FatFs/src/ff.c **** 
1263:Middlewares/Third_Party/FatFs/src/ff.c **** 
1264:Middlewares/Third_Party/FatFs/src/ff.c **** 
1265:Middlewares/Third_Party/FatFs/src/ff.c **** 
1266:Middlewares/Third_Party/FatFs/src/ff.c **** /*-----------------------------------------------------------------------*/
1267:Middlewares/Third_Party/FatFs/src/ff.c **** /* Directory handling - Reserve directory entry                          */
1268:Middlewares/Third_Party/FatFs/src/ff.c **** /*-----------------------------------------------------------------------*/
1269:Middlewares/Third_Party/FatFs/src/ff.c **** 
1270:Middlewares/Third_Party/FatFs/src/ff.c **** #if !_FS_READONLY
1271:Middlewares/Third_Party/FatFs/src/ff.c **** static
1272:Middlewares/Third_Party/FatFs/src/ff.c **** FRESULT dir_alloc (
1273:Middlewares/Third_Party/FatFs/src/ff.c **** 	DIR* dp,	/* Pointer to the directory object */
1274:Middlewares/Third_Party/FatFs/src/ff.c **** 	UINT nent	/* Number of contiguous entries to allocate (1-21) */
1275:Middlewares/Third_Party/FatFs/src/ff.c **** )
1276:Middlewares/Third_Party/FatFs/src/ff.c **** {
1277:Middlewares/Third_Party/FatFs/src/ff.c **** 	FRESULT res;
ARM GAS  /tmp/cciFFPmJ.s 			page 40


1278:Middlewares/Third_Party/FatFs/src/ff.c **** 	UINT n;
1279:Middlewares/Third_Party/FatFs/src/ff.c **** 
1280:Middlewares/Third_Party/FatFs/src/ff.c **** 
1281:Middlewares/Third_Party/FatFs/src/ff.c **** 	res = dir_sdi(dp, 0);
1282:Middlewares/Third_Party/FatFs/src/ff.c **** 	if (res == FR_OK) {
1283:Middlewares/Third_Party/FatFs/src/ff.c **** 		n = 0;
1284:Middlewares/Third_Party/FatFs/src/ff.c **** 		do {
1285:Middlewares/Third_Party/FatFs/src/ff.c **** 			res = move_window(dp->fs, dp->sect);
1286:Middlewares/Third_Party/FatFs/src/ff.c **** 			if (res != FR_OK) break;
1287:Middlewares/Third_Party/FatFs/src/ff.c **** 			if (dp->dir[0] == DDEM || dp->dir[0] == 0) {	/* Is it a free entry? */
1288:Middlewares/Third_Party/FatFs/src/ff.c **** 				if (++n == nent) break;	/* A block of contiguous free entries is found */
1289:Middlewares/Third_Party/FatFs/src/ff.c **** 			} else {
1290:Middlewares/Third_Party/FatFs/src/ff.c **** 				n = 0;					/* Not a blank entry. Restart to search */
1291:Middlewares/Third_Party/FatFs/src/ff.c **** 			}
1292:Middlewares/Third_Party/FatFs/src/ff.c **** 			res = dir_next(dp, 1);		/* Next entry with table stretch enabled */
1293:Middlewares/Third_Party/FatFs/src/ff.c **** 		} while (res == FR_OK);
1294:Middlewares/Third_Party/FatFs/src/ff.c **** 	}
1295:Middlewares/Third_Party/FatFs/src/ff.c **** 	if (res == FR_NO_FILE) res = FR_DENIED;	/* No directory entry to allocate */
1296:Middlewares/Third_Party/FatFs/src/ff.c **** 	return res;
1297:Middlewares/Third_Party/FatFs/src/ff.c **** }
1298:Middlewares/Third_Party/FatFs/src/ff.c **** #endif
1299:Middlewares/Third_Party/FatFs/src/ff.c **** 
1300:Middlewares/Third_Party/FatFs/src/ff.c **** 
1301:Middlewares/Third_Party/FatFs/src/ff.c **** 
1302:Middlewares/Third_Party/FatFs/src/ff.c **** 
1303:Middlewares/Third_Party/FatFs/src/ff.c **** /*-----------------------------------------------------------------------*/
1304:Middlewares/Third_Party/FatFs/src/ff.c **** /* Directory handling - Load/Store start cluster number                  */
1305:Middlewares/Third_Party/FatFs/src/ff.c **** /*-----------------------------------------------------------------------*/
1306:Middlewares/Third_Party/FatFs/src/ff.c **** 
1307:Middlewares/Third_Party/FatFs/src/ff.c **** static
1308:Middlewares/Third_Party/FatFs/src/ff.c **** DWORD ld_clust (
1309:Middlewares/Third_Party/FatFs/src/ff.c **** 	FATFS* fs,	/* Pointer to the fs object */
1310:Middlewares/Third_Party/FatFs/src/ff.c **** 	BYTE* dir	/* Pointer to the directory entry */
1311:Middlewares/Third_Party/FatFs/src/ff.c **** )
1312:Middlewares/Third_Party/FatFs/src/ff.c **** {
 885              		.loc 1 1312 1 is_stmt 1 view -0
 886              		.cfi_startproc
 887              		@ args = 0, pretend = 0, frame = 0
 888              		@ frame_needed = 0, uses_anonymous_args = 0
 889              		@ link register save eliminated.
1313:Middlewares/Third_Party/FatFs/src/ff.c **** 	DWORD cl;
 890              		.loc 1 1313 2 view .LVU256
1314:Middlewares/Third_Party/FatFs/src/ff.c **** 
1315:Middlewares/Third_Party/FatFs/src/ff.c **** 	cl = LD_WORD(dir + DIR_FstClusLO);
 891              		.loc 1 1315 2 view .LVU257
 892              		.loc 1 1315 7 is_stmt 0 view .LVU258
 893 0000 CA7E     		ldrb	r2, [r1, #27]	@ zero_extendqisi2
 894 0002 8B7E     		ldrb	r3, [r1, #26]	@ zero_extendqisi2
 895 0004 43EA0223 		orr	r3, r3, r2, lsl #8
 896              	.LVL83:
1316:Middlewares/Third_Party/FatFs/src/ff.c **** 	if (fs->fs_type == FS_FAT32)
 897              		.loc 1 1316 2 is_stmt 1 view .LVU259
 898              		.loc 1 1316 8 is_stmt 0 view .LVU260
 899 0008 90F80022 		ldrb	r2, [r0, #512]	@ zero_extendqisi2
 900              		.loc 1 1316 5 view .LVU261
 901 000c 032A     		cmp	r2, #3
 902 000e 01D0     		beq	.L92
ARM GAS  /tmp/cciFFPmJ.s 			page 41


 903              	.LVL84:
 904              	.L90:
1317:Middlewares/Third_Party/FatFs/src/ff.c **** 		cl |= (DWORD)LD_WORD(dir + DIR_FstClusHI) << 16;
1318:Middlewares/Third_Party/FatFs/src/ff.c **** 
1319:Middlewares/Third_Party/FatFs/src/ff.c **** 	return cl;
1320:Middlewares/Third_Party/FatFs/src/ff.c **** }
 905              		.loc 1 1320 1 view .LVU262
 906 0010 1846     		mov	r0, r3
 907 0012 7047     		bx	lr
 908              	.LVL85:
 909              	.L92:
1317:Middlewares/Third_Party/FatFs/src/ff.c **** 		cl |= (DWORD)LD_WORD(dir + DIR_FstClusHI) << 16;
 910              		.loc 1 1317 3 is_stmt 1 view .LVU263
1317:Middlewares/Third_Party/FatFs/src/ff.c **** 		cl |= (DWORD)LD_WORD(dir + DIR_FstClusHI) << 16;
 911              		.loc 1 1317 16 is_stmt 0 view .LVU264
 912 0014 487D     		ldrb	r0, [r1, #21]	@ zero_extendqisi2
 913              	.LVL86:
1317:Middlewares/Third_Party/FatFs/src/ff.c **** 		cl |= (DWORD)LD_WORD(dir + DIR_FstClusHI) << 16;
 914              		.loc 1 1317 16 view .LVU265
 915 0016 0A7D     		ldrb	r2, [r1, #20]	@ zero_extendqisi2
 916 0018 42EA0022 		orr	r2, r2, r0, lsl #8
1317:Middlewares/Third_Party/FatFs/src/ff.c **** 		cl |= (DWORD)LD_WORD(dir + DIR_FstClusHI) << 16;
 917              		.loc 1 1317 6 view .LVU266
 918 001c 43EA0243 		orr	r3, r3, r2, lsl #16
 919              	.LVL87:
1319:Middlewares/Third_Party/FatFs/src/ff.c **** }
 920              		.loc 1 1319 2 is_stmt 1 view .LVU267
1319:Middlewares/Third_Party/FatFs/src/ff.c **** }
 921              		.loc 1 1319 9 is_stmt 0 view .LVU268
 922 0020 F6E7     		b	.L90
 923              		.cfi_endproc
 924              	.LFE86:
 926              		.section	.text.st_clust,"ax",%progbits
 927              		.align	1
 928              		.syntax unified
 929              		.thumb
 930              		.thumb_func
 931              		.fpu softvfp
 933              	st_clust:
 934              	.LVL88:
 935              	.LFB87:
1321:Middlewares/Third_Party/FatFs/src/ff.c **** 
1322:Middlewares/Third_Party/FatFs/src/ff.c **** 
1323:Middlewares/Third_Party/FatFs/src/ff.c **** #if !_FS_READONLY
1324:Middlewares/Third_Party/FatFs/src/ff.c **** static
1325:Middlewares/Third_Party/FatFs/src/ff.c **** void st_clust (
1326:Middlewares/Third_Party/FatFs/src/ff.c **** 	BYTE* dir,	/* Pointer to the directory entry */
1327:Middlewares/Third_Party/FatFs/src/ff.c **** 	DWORD cl	/* Value to be set */
1328:Middlewares/Third_Party/FatFs/src/ff.c **** )
1329:Middlewares/Third_Party/FatFs/src/ff.c **** {
 936              		.loc 1 1329 1 is_stmt 1 view -0
 937              		.cfi_startproc
 938              		@ args = 0, pretend = 0, frame = 0
 939              		@ frame_needed = 0, uses_anonymous_args = 0
 940              		@ link register save eliminated.
1330:Middlewares/Third_Party/FatFs/src/ff.c **** 	ST_WORD(dir + DIR_FstClusLO, cl);
 941              		.loc 1 1330 2 view .LVU270
ARM GAS  /tmp/cciFFPmJ.s 			page 42


 942 0000 8176     		strb	r1, [r0, #26]
 943              		.loc 1 1330 2 view .LVU271
 944 0002 C1F30723 		ubfx	r3, r1, #8, #8
 945 0006 C376     		strb	r3, [r0, #27]
1331:Middlewares/Third_Party/FatFs/src/ff.c **** 	ST_WORD(dir + DIR_FstClusHI, cl >> 16);
 946              		.loc 1 1331 2 view .LVU272
 947 0008 C1F30743 		ubfx	r3, r1, #16, #8
 948 000c 0375     		strb	r3, [r0, #20]
 949              		.loc 1 1331 2 view .LVU273
 950 000e 090E     		lsrs	r1, r1, #24
 951              	.LVL89:
 952              		.loc 1 1331 2 is_stmt 0 view .LVU274
 953 0010 4175     		strb	r1, [r0, #21]
1332:Middlewares/Third_Party/FatFs/src/ff.c **** }
 954              		.loc 1 1332 1 view .LVU275
 955 0012 7047     		bx	lr
 956              		.cfi_endproc
 957              	.LFE87:
 959              		.section	.text.get_fileinfo,"ax",%progbits
 960              		.align	1
 961              		.syntax unified
 962              		.thumb
 963              		.thumb_func
 964              		.fpu softvfp
 966              	get_fileinfo:
 967              	.LVL90:
 968              	.LFB92:
1333:Middlewares/Third_Party/FatFs/src/ff.c **** #endif
1334:Middlewares/Third_Party/FatFs/src/ff.c **** 
1335:Middlewares/Third_Party/FatFs/src/ff.c **** 
1336:Middlewares/Third_Party/FatFs/src/ff.c **** 
1337:Middlewares/Third_Party/FatFs/src/ff.c **** 
1338:Middlewares/Third_Party/FatFs/src/ff.c **** /*-----------------------------------------------------------------------*/
1339:Middlewares/Third_Party/FatFs/src/ff.c **** /* LFN handling - Test/Pick/Fit an LFN segment from/to directory entry   */
1340:Middlewares/Third_Party/FatFs/src/ff.c **** /*-----------------------------------------------------------------------*/
1341:Middlewares/Third_Party/FatFs/src/ff.c **** #if _USE_LFN
1342:Middlewares/Third_Party/FatFs/src/ff.c **** static
1343:Middlewares/Third_Party/FatFs/src/ff.c **** const BYTE LfnOfs[] = {1,3,5,7,9,14,16,18,20,22,24,28,30};	/* Offset of LFN characters in the direc
1344:Middlewares/Third_Party/FatFs/src/ff.c **** 
1345:Middlewares/Third_Party/FatFs/src/ff.c **** 
1346:Middlewares/Third_Party/FatFs/src/ff.c **** static
1347:Middlewares/Third_Party/FatFs/src/ff.c **** int cmp_lfn (			/* 1:Matched, 0:Not matched */
1348:Middlewares/Third_Party/FatFs/src/ff.c **** 	WCHAR* lfnbuf,		/* Pointer to the LFN to be compared */
1349:Middlewares/Third_Party/FatFs/src/ff.c **** 	BYTE* dir			/* Pointer to the directory entry containing a part of LFN */
1350:Middlewares/Third_Party/FatFs/src/ff.c **** )
1351:Middlewares/Third_Party/FatFs/src/ff.c **** {
1352:Middlewares/Third_Party/FatFs/src/ff.c **** 	UINT i, s;
1353:Middlewares/Third_Party/FatFs/src/ff.c **** 	WCHAR wc, uc;
1354:Middlewares/Third_Party/FatFs/src/ff.c **** 
1355:Middlewares/Third_Party/FatFs/src/ff.c **** 
1356:Middlewares/Third_Party/FatFs/src/ff.c **** 	i = ((dir[LDIR_Ord] & ~LLEF) - 1) * 13;	/* Get offset in the LFN buffer */
1357:Middlewares/Third_Party/FatFs/src/ff.c **** 	s = 0; wc = 1;
1358:Middlewares/Third_Party/FatFs/src/ff.c **** 	do {
1359:Middlewares/Third_Party/FatFs/src/ff.c **** 		uc = LD_WORD(dir + LfnOfs[s]);	/* Pick an LFN character from the entry */
1360:Middlewares/Third_Party/FatFs/src/ff.c **** 		if (wc) {	/* Last character has not been processed */
1361:Middlewares/Third_Party/FatFs/src/ff.c **** 			wc = ff_wtoupper(uc);		/* Convert it to upper case */
1362:Middlewares/Third_Party/FatFs/src/ff.c **** 			if (i >= _MAX_LFN || wc != ff_wtoupper(lfnbuf[i++]))	/* Compare it */
ARM GAS  /tmp/cciFFPmJ.s 			page 43


1363:Middlewares/Third_Party/FatFs/src/ff.c **** 				return 0;				/* Not matched */
1364:Middlewares/Third_Party/FatFs/src/ff.c **** 		} else {
1365:Middlewares/Third_Party/FatFs/src/ff.c **** 			if (uc != 0xFFFF) return 0;	/* Check filler */
1366:Middlewares/Third_Party/FatFs/src/ff.c **** 		}
1367:Middlewares/Third_Party/FatFs/src/ff.c **** 	} while (++s < 13);				/* Repeat until all characters in the entry are checked */
1368:Middlewares/Third_Party/FatFs/src/ff.c **** 
1369:Middlewares/Third_Party/FatFs/src/ff.c **** 	if ((dir[LDIR_Ord] & LLEF) && wc && lfnbuf[i])	/* Last segment matched but different length */
1370:Middlewares/Third_Party/FatFs/src/ff.c **** 		return 0;
1371:Middlewares/Third_Party/FatFs/src/ff.c **** 
1372:Middlewares/Third_Party/FatFs/src/ff.c **** 	return 1;						/* The part of LFN matched */
1373:Middlewares/Third_Party/FatFs/src/ff.c **** }
1374:Middlewares/Third_Party/FatFs/src/ff.c **** 
1375:Middlewares/Third_Party/FatFs/src/ff.c **** 
1376:Middlewares/Third_Party/FatFs/src/ff.c **** 
1377:Middlewares/Third_Party/FatFs/src/ff.c **** static
1378:Middlewares/Third_Party/FatFs/src/ff.c **** int pick_lfn (			/* 1:Succeeded, 0:Buffer overflow */
1379:Middlewares/Third_Party/FatFs/src/ff.c **** 	WCHAR* lfnbuf,		/* Pointer to the Unicode-LFN buffer */
1380:Middlewares/Third_Party/FatFs/src/ff.c **** 	BYTE* dir			/* Pointer to the directory entry */
1381:Middlewares/Third_Party/FatFs/src/ff.c **** )
1382:Middlewares/Third_Party/FatFs/src/ff.c **** {
1383:Middlewares/Third_Party/FatFs/src/ff.c **** 	UINT i, s;
1384:Middlewares/Third_Party/FatFs/src/ff.c **** 	WCHAR wc, uc;
1385:Middlewares/Third_Party/FatFs/src/ff.c **** 
1386:Middlewares/Third_Party/FatFs/src/ff.c **** 
1387:Middlewares/Third_Party/FatFs/src/ff.c **** 	i = ((dir[LDIR_Ord] & 0x3F) - 1) * 13;	/* Offset in the LFN buffer */
1388:Middlewares/Third_Party/FatFs/src/ff.c **** 
1389:Middlewares/Third_Party/FatFs/src/ff.c **** 	s = 0; wc = 1;
1390:Middlewares/Third_Party/FatFs/src/ff.c **** 	do {
1391:Middlewares/Third_Party/FatFs/src/ff.c **** 		uc = LD_WORD(dir + LfnOfs[s]);		/* Pick an LFN character from the entry */
1392:Middlewares/Third_Party/FatFs/src/ff.c **** 		if (wc) {	/* Last character has not been processed */
1393:Middlewares/Third_Party/FatFs/src/ff.c **** 			if (i >= _MAX_LFN) return 0;	/* Buffer overflow? */
1394:Middlewares/Third_Party/FatFs/src/ff.c **** 			lfnbuf[i++] = wc = uc;			/* Store it */
1395:Middlewares/Third_Party/FatFs/src/ff.c **** 		} else {
1396:Middlewares/Third_Party/FatFs/src/ff.c **** 			if (uc != 0xFFFF) return 0;		/* Check filler */
1397:Middlewares/Third_Party/FatFs/src/ff.c **** 		}
1398:Middlewares/Third_Party/FatFs/src/ff.c **** 	} while (++s < 13);						/* Read all character in the entry */
1399:Middlewares/Third_Party/FatFs/src/ff.c **** 
1400:Middlewares/Third_Party/FatFs/src/ff.c **** 	if (dir[LDIR_Ord] & LLEF) {				/* Put terminator if it is the last LFN part */
1401:Middlewares/Third_Party/FatFs/src/ff.c **** 		if (i >= _MAX_LFN) return 0;		/* Buffer overflow? */
1402:Middlewares/Third_Party/FatFs/src/ff.c **** 		lfnbuf[i] = 0;
1403:Middlewares/Third_Party/FatFs/src/ff.c **** 	}
1404:Middlewares/Third_Party/FatFs/src/ff.c **** 
1405:Middlewares/Third_Party/FatFs/src/ff.c **** 	return 1;
1406:Middlewares/Third_Party/FatFs/src/ff.c **** }
1407:Middlewares/Third_Party/FatFs/src/ff.c **** 
1408:Middlewares/Third_Party/FatFs/src/ff.c **** 
1409:Middlewares/Third_Party/FatFs/src/ff.c **** #if !_FS_READONLY
1410:Middlewares/Third_Party/FatFs/src/ff.c **** static
1411:Middlewares/Third_Party/FatFs/src/ff.c **** void fit_lfn (
1412:Middlewares/Third_Party/FatFs/src/ff.c **** 	const WCHAR* lfnbuf,	/* Pointer to the LFN buffer */
1413:Middlewares/Third_Party/FatFs/src/ff.c **** 	BYTE* dir,				/* Pointer to the directory entry */
1414:Middlewares/Third_Party/FatFs/src/ff.c **** 	BYTE ord,				/* LFN order (1-20) */
1415:Middlewares/Third_Party/FatFs/src/ff.c **** 	BYTE sum				/* SFN sum */
1416:Middlewares/Third_Party/FatFs/src/ff.c **** )
1417:Middlewares/Third_Party/FatFs/src/ff.c **** {
1418:Middlewares/Third_Party/FatFs/src/ff.c **** 	UINT i, s;
1419:Middlewares/Third_Party/FatFs/src/ff.c **** 	WCHAR wc;
ARM GAS  /tmp/cciFFPmJ.s 			page 44


1420:Middlewares/Third_Party/FatFs/src/ff.c **** 
1421:Middlewares/Third_Party/FatFs/src/ff.c **** 
1422:Middlewares/Third_Party/FatFs/src/ff.c **** 	dir[LDIR_Chksum] = sum;			/* Set check sum */
1423:Middlewares/Third_Party/FatFs/src/ff.c **** 	dir[LDIR_Attr] = AM_LFN;		/* Set attribute. LFN entry */
1424:Middlewares/Third_Party/FatFs/src/ff.c **** 	dir[LDIR_Type] = 0;
1425:Middlewares/Third_Party/FatFs/src/ff.c **** 	ST_WORD(dir + LDIR_FstClusLO, 0);
1426:Middlewares/Third_Party/FatFs/src/ff.c **** 
1427:Middlewares/Third_Party/FatFs/src/ff.c **** 	i = (ord - 1) * 13;				/* Get offset in the LFN buffer */
1428:Middlewares/Third_Party/FatFs/src/ff.c **** 	s = wc = 0;
1429:Middlewares/Third_Party/FatFs/src/ff.c **** 	do {
1430:Middlewares/Third_Party/FatFs/src/ff.c **** 		if (wc != 0xFFFF) wc = lfnbuf[i++];	/* Get an effective character */
1431:Middlewares/Third_Party/FatFs/src/ff.c **** 		ST_WORD(dir+LfnOfs[s], wc);	/* Put it */
1432:Middlewares/Third_Party/FatFs/src/ff.c **** 		if (!wc) wc = 0xFFFF;		/* Padding characters following last character */
1433:Middlewares/Third_Party/FatFs/src/ff.c **** 	} while (++s < 13);
1434:Middlewares/Third_Party/FatFs/src/ff.c **** 	if (wc == 0xFFFF || !lfnbuf[i]) ord |= LLEF;	/* Bottom LFN part is the start of LFN sequence */
1435:Middlewares/Third_Party/FatFs/src/ff.c **** 	dir[LDIR_Ord] = ord;			/* Set the LFN order */
1436:Middlewares/Third_Party/FatFs/src/ff.c **** }
1437:Middlewares/Third_Party/FatFs/src/ff.c **** 
1438:Middlewares/Third_Party/FatFs/src/ff.c **** #endif
1439:Middlewares/Third_Party/FatFs/src/ff.c **** #endif
1440:Middlewares/Third_Party/FatFs/src/ff.c **** 
1441:Middlewares/Third_Party/FatFs/src/ff.c **** 
1442:Middlewares/Third_Party/FatFs/src/ff.c **** 
1443:Middlewares/Third_Party/FatFs/src/ff.c **** 
1444:Middlewares/Third_Party/FatFs/src/ff.c **** /*-----------------------------------------------------------------------*/
1445:Middlewares/Third_Party/FatFs/src/ff.c **** /* Create numbered name                                                  */
1446:Middlewares/Third_Party/FatFs/src/ff.c **** /*-----------------------------------------------------------------------*/
1447:Middlewares/Third_Party/FatFs/src/ff.c **** #if _USE_LFN
1448:Middlewares/Third_Party/FatFs/src/ff.c **** static
1449:Middlewares/Third_Party/FatFs/src/ff.c **** void gen_numname (
1450:Middlewares/Third_Party/FatFs/src/ff.c **** 	BYTE* dst,			/* Pointer to the buffer to store numbered SFN */
1451:Middlewares/Third_Party/FatFs/src/ff.c **** 	const BYTE* src,	/* Pointer to SFN */
1452:Middlewares/Third_Party/FatFs/src/ff.c **** 	const WCHAR* lfn,	/* Pointer to LFN */
1453:Middlewares/Third_Party/FatFs/src/ff.c **** 	UINT seq			/* Sequence number */
1454:Middlewares/Third_Party/FatFs/src/ff.c **** )
1455:Middlewares/Third_Party/FatFs/src/ff.c **** {
1456:Middlewares/Third_Party/FatFs/src/ff.c **** 	BYTE ns[8], c;
1457:Middlewares/Third_Party/FatFs/src/ff.c **** 	UINT i, j;
1458:Middlewares/Third_Party/FatFs/src/ff.c **** 	WCHAR wc;
1459:Middlewares/Third_Party/FatFs/src/ff.c **** 	DWORD sr;
1460:Middlewares/Third_Party/FatFs/src/ff.c **** 
1461:Middlewares/Third_Party/FatFs/src/ff.c **** 
1462:Middlewares/Third_Party/FatFs/src/ff.c **** 	mem_cpy(dst, src, 11);
1463:Middlewares/Third_Party/FatFs/src/ff.c **** 
1464:Middlewares/Third_Party/FatFs/src/ff.c **** 	if (seq > 5) {	/* On many collisions, generate a hash number instead of sequential number */
1465:Middlewares/Third_Party/FatFs/src/ff.c **** 		sr = seq;
1466:Middlewares/Third_Party/FatFs/src/ff.c **** 		while (*lfn) {	/* Create a CRC */
1467:Middlewares/Third_Party/FatFs/src/ff.c **** 			wc = *lfn++;
1468:Middlewares/Third_Party/FatFs/src/ff.c **** 			for (i = 0; i < 16; i++) {
1469:Middlewares/Third_Party/FatFs/src/ff.c **** 				sr = (sr << 1) + (wc & 1);
1470:Middlewares/Third_Party/FatFs/src/ff.c **** 				wc >>= 1;
1471:Middlewares/Third_Party/FatFs/src/ff.c **** 				if (sr & 0x10000) sr ^= 0x11021;
1472:Middlewares/Third_Party/FatFs/src/ff.c **** 			}
1473:Middlewares/Third_Party/FatFs/src/ff.c **** 		}
1474:Middlewares/Third_Party/FatFs/src/ff.c **** 		seq = (UINT)sr;
1475:Middlewares/Third_Party/FatFs/src/ff.c **** 	}
1476:Middlewares/Third_Party/FatFs/src/ff.c **** 
ARM GAS  /tmp/cciFFPmJ.s 			page 45


1477:Middlewares/Third_Party/FatFs/src/ff.c **** 	/* itoa (hexdecimal) */
1478:Middlewares/Third_Party/FatFs/src/ff.c **** 	i = 7;
1479:Middlewares/Third_Party/FatFs/src/ff.c **** 	do {
1480:Middlewares/Third_Party/FatFs/src/ff.c **** 		c = (seq % 16) + '0';
1481:Middlewares/Third_Party/FatFs/src/ff.c **** 		if (c > '9') c += 7;
1482:Middlewares/Third_Party/FatFs/src/ff.c **** 		ns[i--] = c;
1483:Middlewares/Third_Party/FatFs/src/ff.c **** 		seq /= 16;
1484:Middlewares/Third_Party/FatFs/src/ff.c **** 	} while (seq);
1485:Middlewares/Third_Party/FatFs/src/ff.c **** 	ns[i] = '~';
1486:Middlewares/Third_Party/FatFs/src/ff.c **** 
1487:Middlewares/Third_Party/FatFs/src/ff.c **** 	/* Append the number */
1488:Middlewares/Third_Party/FatFs/src/ff.c **** 	for (j = 0; j < i && dst[j] != ' '; j++) {
1489:Middlewares/Third_Party/FatFs/src/ff.c **** 		if (IsDBCS1(dst[j])) {
1490:Middlewares/Third_Party/FatFs/src/ff.c **** 			if (j == i - 1) break;
1491:Middlewares/Third_Party/FatFs/src/ff.c **** 			j++;
1492:Middlewares/Third_Party/FatFs/src/ff.c **** 		}
1493:Middlewares/Third_Party/FatFs/src/ff.c **** 	}
1494:Middlewares/Third_Party/FatFs/src/ff.c **** 	do {
1495:Middlewares/Third_Party/FatFs/src/ff.c **** 		dst[j++] = (i < 8) ? ns[i++] : ' ';
1496:Middlewares/Third_Party/FatFs/src/ff.c **** 	} while (j < 8);
1497:Middlewares/Third_Party/FatFs/src/ff.c **** }
1498:Middlewares/Third_Party/FatFs/src/ff.c **** #endif
1499:Middlewares/Third_Party/FatFs/src/ff.c **** 
1500:Middlewares/Third_Party/FatFs/src/ff.c **** 
1501:Middlewares/Third_Party/FatFs/src/ff.c **** 
1502:Middlewares/Third_Party/FatFs/src/ff.c **** 
1503:Middlewares/Third_Party/FatFs/src/ff.c **** /*-----------------------------------------------------------------------*/
1504:Middlewares/Third_Party/FatFs/src/ff.c **** /* Calculate sum of an SFN                                               */
1505:Middlewares/Third_Party/FatFs/src/ff.c **** /*-----------------------------------------------------------------------*/
1506:Middlewares/Third_Party/FatFs/src/ff.c **** #if _USE_LFN
1507:Middlewares/Third_Party/FatFs/src/ff.c **** static
1508:Middlewares/Third_Party/FatFs/src/ff.c **** BYTE sum_sfn (
1509:Middlewares/Third_Party/FatFs/src/ff.c **** 	const BYTE* dir		/* Pointer to the SFN entry */
1510:Middlewares/Third_Party/FatFs/src/ff.c **** )
1511:Middlewares/Third_Party/FatFs/src/ff.c **** {
1512:Middlewares/Third_Party/FatFs/src/ff.c **** 	BYTE sum = 0;
1513:Middlewares/Third_Party/FatFs/src/ff.c **** 	UINT n = 11;
1514:Middlewares/Third_Party/FatFs/src/ff.c **** 
1515:Middlewares/Third_Party/FatFs/src/ff.c **** 	do sum = (sum >> 1) + (sum << 7) + *dir++; while (--n);
1516:Middlewares/Third_Party/FatFs/src/ff.c **** 	return sum;
1517:Middlewares/Third_Party/FatFs/src/ff.c **** }
1518:Middlewares/Third_Party/FatFs/src/ff.c **** #endif
1519:Middlewares/Third_Party/FatFs/src/ff.c **** 
1520:Middlewares/Third_Party/FatFs/src/ff.c **** 
1521:Middlewares/Third_Party/FatFs/src/ff.c **** 
1522:Middlewares/Third_Party/FatFs/src/ff.c **** 
1523:Middlewares/Third_Party/FatFs/src/ff.c **** /*-----------------------------------------------------------------------*/
1524:Middlewares/Third_Party/FatFs/src/ff.c **** /* Directory handling - Find an object in the directory                  */
1525:Middlewares/Third_Party/FatFs/src/ff.c **** /*-----------------------------------------------------------------------*/
1526:Middlewares/Third_Party/FatFs/src/ff.c **** 
1527:Middlewares/Third_Party/FatFs/src/ff.c **** static
1528:Middlewares/Third_Party/FatFs/src/ff.c **** FRESULT dir_find (
1529:Middlewares/Third_Party/FatFs/src/ff.c **** 	DIR* dp			/* Pointer to the directory object linked to the file name */
1530:Middlewares/Third_Party/FatFs/src/ff.c **** )
1531:Middlewares/Third_Party/FatFs/src/ff.c **** {
1532:Middlewares/Third_Party/FatFs/src/ff.c **** 	FRESULT res;
1533:Middlewares/Third_Party/FatFs/src/ff.c **** 	BYTE c, *dir;
ARM GAS  /tmp/cciFFPmJ.s 			page 46


1534:Middlewares/Third_Party/FatFs/src/ff.c **** #if _USE_LFN
1535:Middlewares/Third_Party/FatFs/src/ff.c **** 	BYTE a, ord, sum;
1536:Middlewares/Third_Party/FatFs/src/ff.c **** #endif
1537:Middlewares/Third_Party/FatFs/src/ff.c **** 
1538:Middlewares/Third_Party/FatFs/src/ff.c **** 	res = dir_sdi(dp, 0);			/* Rewind directory object */
1539:Middlewares/Third_Party/FatFs/src/ff.c **** 	if (res != FR_OK) return res;
1540:Middlewares/Third_Party/FatFs/src/ff.c **** 
1541:Middlewares/Third_Party/FatFs/src/ff.c **** #if _USE_LFN
1542:Middlewares/Third_Party/FatFs/src/ff.c **** 	ord = sum = 0xFF; dp->lfn_idx = 0xFFFF;	/* Reset LFN sequence */
1543:Middlewares/Third_Party/FatFs/src/ff.c **** #endif
1544:Middlewares/Third_Party/FatFs/src/ff.c **** 	do {
1545:Middlewares/Third_Party/FatFs/src/ff.c **** 		res = move_window(dp->fs, dp->sect);
1546:Middlewares/Third_Party/FatFs/src/ff.c **** 		if (res != FR_OK) break;
1547:Middlewares/Third_Party/FatFs/src/ff.c **** 		dir = dp->dir;					/* Ptr to the directory entry of current index */
1548:Middlewares/Third_Party/FatFs/src/ff.c **** 		c = dir[DIR_Name];
1549:Middlewares/Third_Party/FatFs/src/ff.c **** 		if (c == 0) { res = FR_NO_FILE; break; }	/* Reached to end of table */
1550:Middlewares/Third_Party/FatFs/src/ff.c **** #if _USE_LFN	/* LFN configuration */
1551:Middlewares/Third_Party/FatFs/src/ff.c **** 		a = dir[DIR_Attr] & AM_MASK;
1552:Middlewares/Third_Party/FatFs/src/ff.c **** 		if (c == DDEM || ((a & AM_VOL) && a != AM_LFN)) {	/* An entry without valid data */
1553:Middlewares/Third_Party/FatFs/src/ff.c **** 			ord = 0xFF; dp->lfn_idx = 0xFFFF;	/* Reset LFN sequence */
1554:Middlewares/Third_Party/FatFs/src/ff.c **** 		} else {
1555:Middlewares/Third_Party/FatFs/src/ff.c **** 			if (a == AM_LFN) {			/* An LFN entry is found */
1556:Middlewares/Third_Party/FatFs/src/ff.c **** 				if (dp->lfn) {
1557:Middlewares/Third_Party/FatFs/src/ff.c **** 					if (c & LLEF) {		/* Is it start of LFN sequence? */
1558:Middlewares/Third_Party/FatFs/src/ff.c **** 						sum = dir[LDIR_Chksum];
1559:Middlewares/Third_Party/FatFs/src/ff.c **** 						c &= ~LLEF; ord = c;	/* LFN start order */
1560:Middlewares/Third_Party/FatFs/src/ff.c **** 						dp->lfn_idx = dp->index;	/* Start index of LFN */
1561:Middlewares/Third_Party/FatFs/src/ff.c **** 					}
1562:Middlewares/Third_Party/FatFs/src/ff.c **** 					/* Check validity of the LFN entry and compare it with given name */
1563:Middlewares/Third_Party/FatFs/src/ff.c **** 					ord = (c == ord && sum == dir[LDIR_Chksum] && cmp_lfn(dp->lfn, dir)) ? ord - 1 : 0xFF;
1564:Middlewares/Third_Party/FatFs/src/ff.c **** 				}
1565:Middlewares/Third_Party/FatFs/src/ff.c **** 			} else {					/* An SFN entry is found */
1566:Middlewares/Third_Party/FatFs/src/ff.c **** 				if (!ord && sum == sum_sfn(dir)) break;	/* LFN matched? */
1567:Middlewares/Third_Party/FatFs/src/ff.c **** 				if (!(dp->fn[NSFLAG] & NS_LOSS) && !mem_cmp(dir, dp->fn, 11)) break;	/* SFN matched? */
1568:Middlewares/Third_Party/FatFs/src/ff.c **** 				ord = 0xFF; dp->lfn_idx = 0xFFFF;	/* Reset LFN sequence */
1569:Middlewares/Third_Party/FatFs/src/ff.c **** 			}
1570:Middlewares/Third_Party/FatFs/src/ff.c **** 		}
1571:Middlewares/Third_Party/FatFs/src/ff.c **** #else		/* Non LFN configuration */
1572:Middlewares/Third_Party/FatFs/src/ff.c **** 		if (!(dir[DIR_Attr] & AM_VOL) && !mem_cmp(dir, dp->fn, 11)) /* Is it a valid entry? */
1573:Middlewares/Third_Party/FatFs/src/ff.c **** 			break;
1574:Middlewares/Third_Party/FatFs/src/ff.c **** #endif
1575:Middlewares/Third_Party/FatFs/src/ff.c **** 		res = dir_next(dp, 0);		/* Next entry */
1576:Middlewares/Third_Party/FatFs/src/ff.c **** 	} while (res == FR_OK);
1577:Middlewares/Third_Party/FatFs/src/ff.c **** 
1578:Middlewares/Third_Party/FatFs/src/ff.c **** 	return res;
1579:Middlewares/Third_Party/FatFs/src/ff.c **** }
1580:Middlewares/Third_Party/FatFs/src/ff.c **** 
1581:Middlewares/Third_Party/FatFs/src/ff.c **** 
1582:Middlewares/Third_Party/FatFs/src/ff.c **** 
1583:Middlewares/Third_Party/FatFs/src/ff.c **** 
1584:Middlewares/Third_Party/FatFs/src/ff.c **** /*-----------------------------------------------------------------------*/
1585:Middlewares/Third_Party/FatFs/src/ff.c **** /* Read an object from the directory                                     */
1586:Middlewares/Third_Party/FatFs/src/ff.c **** /*-----------------------------------------------------------------------*/
1587:Middlewares/Third_Party/FatFs/src/ff.c **** #if _FS_MINIMIZE <= 1 || _USE_LABEL || _FS_RPATH >= 2
1588:Middlewares/Third_Party/FatFs/src/ff.c **** static
1589:Middlewares/Third_Party/FatFs/src/ff.c **** FRESULT dir_read (
1590:Middlewares/Third_Party/FatFs/src/ff.c **** 	DIR* dp,		/* Pointer to the directory object */
ARM GAS  /tmp/cciFFPmJ.s 			page 47


1591:Middlewares/Third_Party/FatFs/src/ff.c **** 	int vol			/* Filtered by 0:file/directory or 1:volume label */
1592:Middlewares/Third_Party/FatFs/src/ff.c **** )
1593:Middlewares/Third_Party/FatFs/src/ff.c **** {
1594:Middlewares/Third_Party/FatFs/src/ff.c **** 	FRESULT res;
1595:Middlewares/Third_Party/FatFs/src/ff.c **** 	BYTE a, c, *dir;
1596:Middlewares/Third_Party/FatFs/src/ff.c **** #if _USE_LFN
1597:Middlewares/Third_Party/FatFs/src/ff.c **** 	BYTE ord = 0xFF, sum = 0xFF;
1598:Middlewares/Third_Party/FatFs/src/ff.c **** #endif
1599:Middlewares/Third_Party/FatFs/src/ff.c **** 
1600:Middlewares/Third_Party/FatFs/src/ff.c **** 	res = FR_NO_FILE;
1601:Middlewares/Third_Party/FatFs/src/ff.c **** 	while (dp->sect) {
1602:Middlewares/Third_Party/FatFs/src/ff.c **** 		res = move_window(dp->fs, dp->sect);
1603:Middlewares/Third_Party/FatFs/src/ff.c **** 		if (res != FR_OK) break;
1604:Middlewares/Third_Party/FatFs/src/ff.c **** 		dir = dp->dir;					/* Ptr to the directory entry of current index */
1605:Middlewares/Third_Party/FatFs/src/ff.c **** 		c = dir[DIR_Name];
1606:Middlewares/Third_Party/FatFs/src/ff.c **** 		if (c == 0) { res = FR_NO_FILE; break; }	/* Reached to end of table */
1607:Middlewares/Third_Party/FatFs/src/ff.c **** 		a = dir[DIR_Attr] & AM_MASK;
1608:Middlewares/Third_Party/FatFs/src/ff.c **** #if _USE_LFN	/* LFN configuration */
1609:Middlewares/Third_Party/FatFs/src/ff.c **** 		if (c == DDEM || (!_FS_RPATH && c == '.') || (int)((a & ~AM_ARC) == AM_VOL) != vol) {	/* An entry
1610:Middlewares/Third_Party/FatFs/src/ff.c **** 			ord = 0xFF;
1611:Middlewares/Third_Party/FatFs/src/ff.c **** 		} else {
1612:Middlewares/Third_Party/FatFs/src/ff.c **** 			if (a == AM_LFN) {			/* An LFN entry is found */
1613:Middlewares/Third_Party/FatFs/src/ff.c **** 				if (c & LLEF) {			/* Is it start of LFN sequence? */
1614:Middlewares/Third_Party/FatFs/src/ff.c **** 					sum = dir[LDIR_Chksum];
1615:Middlewares/Third_Party/FatFs/src/ff.c **** 					c &= ~LLEF; ord = c;
1616:Middlewares/Third_Party/FatFs/src/ff.c **** 					dp->lfn_idx = dp->index;
1617:Middlewares/Third_Party/FatFs/src/ff.c **** 				}
1618:Middlewares/Third_Party/FatFs/src/ff.c **** 				/* Check LFN validity and capture it */
1619:Middlewares/Third_Party/FatFs/src/ff.c **** 				ord = (c == ord && sum == dir[LDIR_Chksum] && pick_lfn(dp->lfn, dir)) ? ord - 1 : 0xFF;
1620:Middlewares/Third_Party/FatFs/src/ff.c **** 			} else {					/* An SFN entry is found */
1621:Middlewares/Third_Party/FatFs/src/ff.c **** 				if (ord || sum != sum_sfn(dir))	/* Is there a valid LFN? */
1622:Middlewares/Third_Party/FatFs/src/ff.c **** 					dp->lfn_idx = 0xFFFF;		/* It has no LFN. */
1623:Middlewares/Third_Party/FatFs/src/ff.c **** 				break;
1624:Middlewares/Third_Party/FatFs/src/ff.c **** 			}
1625:Middlewares/Third_Party/FatFs/src/ff.c **** 		}
1626:Middlewares/Third_Party/FatFs/src/ff.c **** #else		/* Non LFN configuration */
1627:Middlewares/Third_Party/FatFs/src/ff.c **** 		if (c != DDEM && (_FS_RPATH || c != '.') && a != AM_LFN && (int)((a & ~AM_ARC) == AM_VOL) == vol)
1628:Middlewares/Third_Party/FatFs/src/ff.c **** 			break;
1629:Middlewares/Third_Party/FatFs/src/ff.c **** #endif
1630:Middlewares/Third_Party/FatFs/src/ff.c **** 		res = dir_next(dp, 0);				/* Next entry */
1631:Middlewares/Third_Party/FatFs/src/ff.c **** 		if (res != FR_OK) break;
1632:Middlewares/Third_Party/FatFs/src/ff.c **** 	}
1633:Middlewares/Third_Party/FatFs/src/ff.c **** 
1634:Middlewares/Third_Party/FatFs/src/ff.c **** 	if (res != FR_OK) dp->sect = 0;
1635:Middlewares/Third_Party/FatFs/src/ff.c **** 
1636:Middlewares/Third_Party/FatFs/src/ff.c **** 	return res;
1637:Middlewares/Third_Party/FatFs/src/ff.c **** }
1638:Middlewares/Third_Party/FatFs/src/ff.c **** #endif	/* _FS_MINIMIZE <= 1 || _USE_LABEL || _FS_RPATH >= 2 */
1639:Middlewares/Third_Party/FatFs/src/ff.c **** 
1640:Middlewares/Third_Party/FatFs/src/ff.c **** 
1641:Middlewares/Third_Party/FatFs/src/ff.c **** 
1642:Middlewares/Third_Party/FatFs/src/ff.c **** 
1643:Middlewares/Third_Party/FatFs/src/ff.c **** /*-----------------------------------------------------------------------*/
1644:Middlewares/Third_Party/FatFs/src/ff.c **** /* Register an object to the directory                                   */
1645:Middlewares/Third_Party/FatFs/src/ff.c **** /*-----------------------------------------------------------------------*/
1646:Middlewares/Third_Party/FatFs/src/ff.c **** #if !_FS_READONLY
1647:Middlewares/Third_Party/FatFs/src/ff.c **** static
ARM GAS  /tmp/cciFFPmJ.s 			page 48


1648:Middlewares/Third_Party/FatFs/src/ff.c **** FRESULT dir_register (	/* FR_OK:Successful, FR_DENIED:No free entry or too many SFN collision, FR_D
1649:Middlewares/Third_Party/FatFs/src/ff.c **** 	DIR* dp				/* Target directory with object name to be created */
1650:Middlewares/Third_Party/FatFs/src/ff.c **** )
1651:Middlewares/Third_Party/FatFs/src/ff.c **** {
1652:Middlewares/Third_Party/FatFs/src/ff.c **** 	FRESULT res;
1653:Middlewares/Third_Party/FatFs/src/ff.c **** #if _USE_LFN	/* LFN configuration */
1654:Middlewares/Third_Party/FatFs/src/ff.c **** 	UINT n, nent;
1655:Middlewares/Third_Party/FatFs/src/ff.c **** 	BYTE sn[12], *fn, sum;
1656:Middlewares/Third_Party/FatFs/src/ff.c **** 	WCHAR *lfn;
1657:Middlewares/Third_Party/FatFs/src/ff.c **** 
1658:Middlewares/Third_Party/FatFs/src/ff.c **** 
1659:Middlewares/Third_Party/FatFs/src/ff.c **** 	fn = dp->fn; lfn = dp->lfn;
1660:Middlewares/Third_Party/FatFs/src/ff.c **** 	mem_cpy(sn, fn, 12);
1661:Middlewares/Third_Party/FatFs/src/ff.c **** 
1662:Middlewares/Third_Party/FatFs/src/ff.c **** 	if (_FS_RPATH && (sn[NSFLAG] & NS_DOT))		/* Cannot create dot entry */
1663:Middlewares/Third_Party/FatFs/src/ff.c **** 		return FR_INVALID_NAME;
1664:Middlewares/Third_Party/FatFs/src/ff.c **** 
1665:Middlewares/Third_Party/FatFs/src/ff.c **** 	if (sn[NSFLAG] & NS_LOSS) {			/* When LFN is out of 8.3 format, generate a numbered name */
1666:Middlewares/Third_Party/FatFs/src/ff.c **** 		fn[NSFLAG] = 0; dp->lfn = 0;			/* Find only SFN */
1667:Middlewares/Third_Party/FatFs/src/ff.c **** 		for (n = 1; n < 100; n++) {
1668:Middlewares/Third_Party/FatFs/src/ff.c **** 			gen_numname(fn, sn, lfn, n);	/* Generate a numbered name */
1669:Middlewares/Third_Party/FatFs/src/ff.c **** 			res = dir_find(dp);				/* Check if the name collides with existing SFN */
1670:Middlewares/Third_Party/FatFs/src/ff.c **** 			if (res != FR_OK) break;
1671:Middlewares/Third_Party/FatFs/src/ff.c **** 		}
1672:Middlewares/Third_Party/FatFs/src/ff.c **** 		if (n == 100) return FR_DENIED;		/* Abort if too many collisions */
1673:Middlewares/Third_Party/FatFs/src/ff.c **** 		if (res != FR_NO_FILE) return res;	/* Abort if the result is other than 'not collided' */
1674:Middlewares/Third_Party/FatFs/src/ff.c **** 		fn[NSFLAG] = sn[NSFLAG]; dp->lfn = lfn;
1675:Middlewares/Third_Party/FatFs/src/ff.c **** 	}
1676:Middlewares/Third_Party/FatFs/src/ff.c **** 
1677:Middlewares/Third_Party/FatFs/src/ff.c **** 	if (sn[NSFLAG] & NS_LFN) {			/* When LFN is to be created, allocate entries for an SFN + LFNs. */
1678:Middlewares/Third_Party/FatFs/src/ff.c **** 		for (n = 0; lfn[n]; n++) ;
1679:Middlewares/Third_Party/FatFs/src/ff.c **** 		nent = (n + 25) / 13;
1680:Middlewares/Third_Party/FatFs/src/ff.c **** 	} else {						/* Otherwise allocate an entry for an SFN  */
1681:Middlewares/Third_Party/FatFs/src/ff.c **** 		nent = 1;
1682:Middlewares/Third_Party/FatFs/src/ff.c **** 	}
1683:Middlewares/Third_Party/FatFs/src/ff.c **** 	res = dir_alloc(dp, nent);		/* Allocate entries */
1684:Middlewares/Third_Party/FatFs/src/ff.c **** 
1685:Middlewares/Third_Party/FatFs/src/ff.c **** 	if (res == FR_OK && --nent) {	/* Set LFN entry if needed */
1686:Middlewares/Third_Party/FatFs/src/ff.c **** 		res = dir_sdi(dp, dp->index - nent);
1687:Middlewares/Third_Party/FatFs/src/ff.c **** 		if (res == FR_OK) {
1688:Middlewares/Third_Party/FatFs/src/ff.c **** 			sum = sum_sfn(dp->fn);	/* Sum value of the SFN tied to the LFN */
1689:Middlewares/Third_Party/FatFs/src/ff.c **** 			do {					/* Store LFN entries in bottom first */
1690:Middlewares/Third_Party/FatFs/src/ff.c **** 				res = move_window(dp->fs, dp->sect);
1691:Middlewares/Third_Party/FatFs/src/ff.c **** 				if (res != FR_OK) break;
1692:Middlewares/Third_Party/FatFs/src/ff.c **** 				fit_lfn(dp->lfn, dp->dir, (BYTE)nent, sum);
1693:Middlewares/Third_Party/FatFs/src/ff.c **** 				dp->fs->wflag = 1;
1694:Middlewares/Third_Party/FatFs/src/ff.c **** 				res = dir_next(dp, 0);	/* Next entry */
1695:Middlewares/Third_Party/FatFs/src/ff.c **** 			} while (res == FR_OK && --nent);
1696:Middlewares/Third_Party/FatFs/src/ff.c **** 		}
1697:Middlewares/Third_Party/FatFs/src/ff.c **** 	}
1698:Middlewares/Third_Party/FatFs/src/ff.c **** #else	/* Non LFN configuration */
1699:Middlewares/Third_Party/FatFs/src/ff.c **** 	res = dir_alloc(dp, 1);		/* Allocate an entry for SFN */
1700:Middlewares/Third_Party/FatFs/src/ff.c **** #endif
1701:Middlewares/Third_Party/FatFs/src/ff.c **** 
1702:Middlewares/Third_Party/FatFs/src/ff.c **** 	if (res == FR_OK) {				/* Set SFN entry */
1703:Middlewares/Third_Party/FatFs/src/ff.c **** 		res = move_window(dp->fs, dp->sect);
1704:Middlewares/Third_Party/FatFs/src/ff.c **** 		if (res == FR_OK) {
ARM GAS  /tmp/cciFFPmJ.s 			page 49


1705:Middlewares/Third_Party/FatFs/src/ff.c **** 			mem_set(dp->dir, 0, SZ_DIRE);	/* Clean the entry */
1706:Middlewares/Third_Party/FatFs/src/ff.c **** 			mem_cpy(dp->dir, dp->fn, 11);	/* Put SFN */
1707:Middlewares/Third_Party/FatFs/src/ff.c **** #if _USE_LFN
1708:Middlewares/Third_Party/FatFs/src/ff.c **** 			dp->dir[DIR_NTres] = dp->fn[NSFLAG] & (NS_BODY | NS_EXT);	/* Put NT flag */
1709:Middlewares/Third_Party/FatFs/src/ff.c **** #endif
1710:Middlewares/Third_Party/FatFs/src/ff.c **** 			dp->fs->wflag = 1;
1711:Middlewares/Third_Party/FatFs/src/ff.c **** 		}
1712:Middlewares/Third_Party/FatFs/src/ff.c **** 	}
1713:Middlewares/Third_Party/FatFs/src/ff.c **** 
1714:Middlewares/Third_Party/FatFs/src/ff.c **** 	return res;
1715:Middlewares/Third_Party/FatFs/src/ff.c **** }
1716:Middlewares/Third_Party/FatFs/src/ff.c **** #endif /* !_FS_READONLY */
1717:Middlewares/Third_Party/FatFs/src/ff.c **** 
1718:Middlewares/Third_Party/FatFs/src/ff.c **** 
1719:Middlewares/Third_Party/FatFs/src/ff.c **** 
1720:Middlewares/Third_Party/FatFs/src/ff.c **** 
1721:Middlewares/Third_Party/FatFs/src/ff.c **** /*-----------------------------------------------------------------------*/
1722:Middlewares/Third_Party/FatFs/src/ff.c **** /* Remove an object from the directory                                   */
1723:Middlewares/Third_Party/FatFs/src/ff.c **** /*-----------------------------------------------------------------------*/
1724:Middlewares/Third_Party/FatFs/src/ff.c **** #if !_FS_READONLY && !_FS_MINIMIZE
1725:Middlewares/Third_Party/FatFs/src/ff.c **** static
1726:Middlewares/Third_Party/FatFs/src/ff.c **** FRESULT dir_remove (	/* FR_OK: Successful, FR_DISK_ERR: A disk error */
1727:Middlewares/Third_Party/FatFs/src/ff.c **** 	DIR* dp				/* Directory object pointing the entry to be removed */
1728:Middlewares/Third_Party/FatFs/src/ff.c **** )
1729:Middlewares/Third_Party/FatFs/src/ff.c **** {
1730:Middlewares/Third_Party/FatFs/src/ff.c **** 	FRESULT res;
1731:Middlewares/Third_Party/FatFs/src/ff.c **** #if _USE_LFN	/* LFN configuration */
1732:Middlewares/Third_Party/FatFs/src/ff.c **** 	UINT i;
1733:Middlewares/Third_Party/FatFs/src/ff.c **** 
1734:Middlewares/Third_Party/FatFs/src/ff.c **** 	i = dp->index;	/* SFN index */
1735:Middlewares/Third_Party/FatFs/src/ff.c **** 	res = dir_sdi(dp, (dp->lfn_idx == 0xFFFF) ? i : dp->lfn_idx);	/* Goto the SFN or top of the LFN en
1736:Middlewares/Third_Party/FatFs/src/ff.c **** 	if (res == FR_OK) {
1737:Middlewares/Third_Party/FatFs/src/ff.c **** 		do {
1738:Middlewares/Third_Party/FatFs/src/ff.c **** 			res = move_window(dp->fs, dp->sect);
1739:Middlewares/Third_Party/FatFs/src/ff.c **** 			if (res != FR_OK) break;
1740:Middlewares/Third_Party/FatFs/src/ff.c **** 			mem_set(dp->dir, 0, SZ_DIRE);	/* Clear and mark the entry "deleted" */
1741:Middlewares/Third_Party/FatFs/src/ff.c **** 			*dp->dir = DDEM;
1742:Middlewares/Third_Party/FatFs/src/ff.c **** 			dp->fs->wflag = 1;
1743:Middlewares/Third_Party/FatFs/src/ff.c **** 			if (dp->index >= i) break;	/* When reached SFN, all entries of the object has been deleted. */
1744:Middlewares/Third_Party/FatFs/src/ff.c **** 			res = dir_next(dp, 0);		/* Next entry */
1745:Middlewares/Third_Party/FatFs/src/ff.c **** 		} while (res == FR_OK);
1746:Middlewares/Third_Party/FatFs/src/ff.c **** 		if (res == FR_NO_FILE) res = FR_INT_ERR;
1747:Middlewares/Third_Party/FatFs/src/ff.c **** 	}
1748:Middlewares/Third_Party/FatFs/src/ff.c **** 
1749:Middlewares/Third_Party/FatFs/src/ff.c **** #else			/* Non LFN configuration */
1750:Middlewares/Third_Party/FatFs/src/ff.c **** 	res = dir_sdi(dp, dp->index);
1751:Middlewares/Third_Party/FatFs/src/ff.c **** 	if (res == FR_OK) {
1752:Middlewares/Third_Party/FatFs/src/ff.c **** 		res = move_window(dp->fs, dp->sect);
1753:Middlewares/Third_Party/FatFs/src/ff.c **** 		if (res == FR_OK) {
1754:Middlewares/Third_Party/FatFs/src/ff.c **** 			mem_set(dp->dir, 0, SZ_DIRE);	/* Clear and mark the entry "deleted" */
1755:Middlewares/Third_Party/FatFs/src/ff.c **** 			*dp->dir = DDEM;
1756:Middlewares/Third_Party/FatFs/src/ff.c **** 			dp->fs->wflag = 1;
1757:Middlewares/Third_Party/FatFs/src/ff.c **** 		}
1758:Middlewares/Third_Party/FatFs/src/ff.c **** 	}
1759:Middlewares/Third_Party/FatFs/src/ff.c **** #endif
1760:Middlewares/Third_Party/FatFs/src/ff.c **** 
1761:Middlewares/Third_Party/FatFs/src/ff.c **** 	return res;
ARM GAS  /tmp/cciFFPmJ.s 			page 50


1762:Middlewares/Third_Party/FatFs/src/ff.c **** }
1763:Middlewares/Third_Party/FatFs/src/ff.c **** #endif /* !_FS_READONLY */
1764:Middlewares/Third_Party/FatFs/src/ff.c **** 
1765:Middlewares/Third_Party/FatFs/src/ff.c **** 
1766:Middlewares/Third_Party/FatFs/src/ff.c **** 
1767:Middlewares/Third_Party/FatFs/src/ff.c **** 
1768:Middlewares/Third_Party/FatFs/src/ff.c **** /*-----------------------------------------------------------------------*/
1769:Middlewares/Third_Party/FatFs/src/ff.c **** /* Get file information from directory entry                             */
1770:Middlewares/Third_Party/FatFs/src/ff.c **** /*-----------------------------------------------------------------------*/
1771:Middlewares/Third_Party/FatFs/src/ff.c **** #if _FS_MINIMIZE <= 1 || _FS_RPATH >= 2
1772:Middlewares/Third_Party/FatFs/src/ff.c **** static
1773:Middlewares/Third_Party/FatFs/src/ff.c **** void get_fileinfo (		/* No return code */
1774:Middlewares/Third_Party/FatFs/src/ff.c **** 	DIR* dp,			/* Pointer to the directory object */
1775:Middlewares/Third_Party/FatFs/src/ff.c **** 	FILINFO* fno	 	/* Pointer to the file information to be filled */
1776:Middlewares/Third_Party/FatFs/src/ff.c **** )
1777:Middlewares/Third_Party/FatFs/src/ff.c **** {
 969              		.loc 1 1777 1 is_stmt 1 view -0
 970              		.cfi_startproc
 971              		@ args = 0, pretend = 0, frame = 0
 972              		@ frame_needed = 0, uses_anonymous_args = 0
 973              		@ link register save eliminated.
1778:Middlewares/Third_Party/FatFs/src/ff.c **** 	UINT i;
 974              		.loc 1 1778 2 view .LVU277
1779:Middlewares/Third_Party/FatFs/src/ff.c **** 	TCHAR *p, c;
 975              		.loc 1 1779 2 view .LVU278
1780:Middlewares/Third_Party/FatFs/src/ff.c **** 	BYTE *dir;
 976              		.loc 1 1780 2 view .LVU279
1781:Middlewares/Third_Party/FatFs/src/ff.c **** #if _USE_LFN
1782:Middlewares/Third_Party/FatFs/src/ff.c **** 	WCHAR w, *lfn;
1783:Middlewares/Third_Party/FatFs/src/ff.c **** #endif
1784:Middlewares/Third_Party/FatFs/src/ff.c **** 
1785:Middlewares/Third_Party/FatFs/src/ff.c **** 	p = fno->fname;
 977              		.loc 1 1785 2 view .LVU280
 978              		.loc 1 1785 4 is_stmt 0 view .LVU281
 979 0000 01F10902 		add	r2, r1, #9
 980              	.LVL91:
1786:Middlewares/Third_Party/FatFs/src/ff.c **** 	if (dp->sect) {		/* Get SFN */
 981              		.loc 1 1786 2 is_stmt 1 view .LVU282
 982              		.loc 1 1786 8 is_stmt 0 view .LVU283
 983 0004 D0F81032 		ldr	r3, [r0, #528]
 984              		.loc 1 1786 5 view .LVU284
 985 0008 002B     		cmp	r3, #0
 986 000a 32D0     		beq	.L103
1777:Middlewares/Third_Party/FatFs/src/ff.c **** 	UINT i;
 987              		.loc 1 1777 1 view .LVU285
 988 000c 30B4     		push	{r4, r5}
 989              	.LCFI12:
 990              		.cfi_def_cfa_offset 8
 991              		.cfi_offset 4, -8
 992              		.cfi_offset 5, -4
1787:Middlewares/Third_Party/FatFs/src/ff.c **** 		dir = dp->dir;
 993              		.loc 1 1787 3 is_stmt 1 view .LVU286
 994              		.loc 1 1787 7 is_stmt 0 view .LVU287
 995 000e D0F81442 		ldr	r4, [r0, #532]
 996              	.LVL92:
1788:Middlewares/Third_Party/FatFs/src/ff.c **** 		i = 0;
 997              		.loc 1 1788 3 is_stmt 1 view .LVU288
ARM GAS  /tmp/cciFFPmJ.s 			page 51


1789:Middlewares/Third_Party/FatFs/src/ff.c **** 		while (i < 11) {		/* Copy name body and extension */
 998              		.loc 1 1789 3 view .LVU289
1788:Middlewares/Third_Party/FatFs/src/ff.c **** 		i = 0;
 999              		.loc 1 1788 5 is_stmt 0 view .LVU290
 1000 0012 0023     		movs	r3, #0
 1001              		.loc 1 1789 9 view .LVU291
 1002 0014 04E0     		b	.L96
 1003              	.LVL93:
 1004              	.L98:
1790:Middlewares/Third_Party/FatFs/src/ff.c **** 			c = (TCHAR)dir[i++];
1791:Middlewares/Third_Party/FatFs/src/ff.c **** 			if (c == ' ') continue;				/* Skip padding spaces */
1792:Middlewares/Third_Party/FatFs/src/ff.c **** 			if (c == RDDEM) c = (TCHAR)DDEM;	/* Restore replaced DDEM character */
1793:Middlewares/Third_Party/FatFs/src/ff.c **** 			if (i == 9) *p++ = '.';				/* Insert a . if extension is exist */
 1005              		.loc 1 1793 4 is_stmt 1 view .LVU292
 1006              		.loc 1 1793 7 is_stmt 0 view .LVU293
 1007 0016 0928     		cmp	r0, #9
 1008 0018 0CD0     		beq	.L106
 1009              	.L99:
1794:Middlewares/Third_Party/FatFs/src/ff.c **** #if _USE_LFN
1795:Middlewares/Third_Party/FatFs/src/ff.c **** 			if (IsUpper(c) && (dir[DIR_NTres] & (i >= 9 ? NS_EXT : NS_BODY)))
1796:Middlewares/Third_Party/FatFs/src/ff.c **** 				c += 0x20;			/* To lower */
1797:Middlewares/Third_Party/FatFs/src/ff.c **** #if _LFN_UNICODE
1798:Middlewares/Third_Party/FatFs/src/ff.c **** 			if (IsDBCS1(c) && i != 8 && i != 11 && IsDBCS2(dir[i]))
1799:Middlewares/Third_Party/FatFs/src/ff.c **** 				c = c << 8 | dir[i++];
1800:Middlewares/Third_Party/FatFs/src/ff.c **** 			c = ff_convert(c, 1);	/* OEM -> Unicode */
1801:Middlewares/Third_Party/FatFs/src/ff.c **** 			if (!c) c = '?';
1802:Middlewares/Third_Party/FatFs/src/ff.c **** #endif
1803:Middlewares/Third_Party/FatFs/src/ff.c **** #endif
1804:Middlewares/Third_Party/FatFs/src/ff.c **** 			*p++ = c;
 1010              		.loc 1 1804 4 is_stmt 1 view .LVU294
 1011              	.LVL94:
 1012              		.loc 1 1804 9 is_stmt 0 view .LVU295
 1013 001a 02F8013B 		strb	r3, [r2], #1
 1014              	.LVL95:
 1015              	.L97:
 1016              		.loc 1 1804 6 view .LVU296
 1017 001e 0346     		mov	r3, r0
 1018              	.LVL96:
 1019              	.L96:
1789:Middlewares/Third_Party/FatFs/src/ff.c **** 			c = (TCHAR)dir[i++];
 1020              		.loc 1 1789 9 is_stmt 1 view .LVU297
 1021 0020 0A2B     		cmp	r3, #10
 1022 0022 0BD8     		bhi	.L107
1790:Middlewares/Third_Party/FatFs/src/ff.c **** 			c = (TCHAR)dir[i++];
 1023              		.loc 1 1790 4 view .LVU298
1790:Middlewares/Third_Party/FatFs/src/ff.c **** 			c = (TCHAR)dir[i++];
 1024              		.loc 1 1790 20 is_stmt 0 view .LVU299
 1025 0024 581C     		adds	r0, r3, #1
 1026              	.LVL97:
1790:Middlewares/Third_Party/FatFs/src/ff.c **** 			c = (TCHAR)dir[i++];
 1027              		.loc 1 1790 6 view .LVU300
 1028 0026 E35C     		ldrb	r3, [r4, r3]	@ zero_extendqisi2
 1029              	.LVL98:
1791:Middlewares/Third_Party/FatFs/src/ff.c **** 			if (c == RDDEM) c = (TCHAR)DDEM;	/* Restore replaced DDEM character */
 1030              		.loc 1 1791 4 is_stmt 1 view .LVU301
1791:Middlewares/Third_Party/FatFs/src/ff.c **** 			if (c == RDDEM) c = (TCHAR)DDEM;	/* Restore replaced DDEM character */
 1031              		.loc 1 1791 7 is_stmt 0 view .LVU302
ARM GAS  /tmp/cciFFPmJ.s 			page 52


 1032 0028 202B     		cmp	r3, #32
 1033 002a F8D0     		beq	.L97
1792:Middlewares/Third_Party/FatFs/src/ff.c **** 			if (i == 9) *p++ = '.';				/* Insert a . if extension is exist */
 1034              		.loc 1 1792 4 is_stmt 1 view .LVU303
1792:Middlewares/Third_Party/FatFs/src/ff.c **** 			if (i == 9) *p++ = '.';				/* Insert a . if extension is exist */
 1035              		.loc 1 1792 7 is_stmt 0 view .LVU304
 1036 002c 052B     		cmp	r3, #5
 1037 002e F2D1     		bne	.L98
1792:Middlewares/Third_Party/FatFs/src/ff.c **** 			if (i == 9) *p++ = '.';				/* Insert a . if extension is exist */
 1038              		.loc 1 1792 22 view .LVU305
 1039 0030 E523     		movs	r3, #229
 1040              	.LVL99:
1792:Middlewares/Third_Party/FatFs/src/ff.c **** 			if (i == 9) *p++ = '.';				/* Insert a . if extension is exist */
 1041              		.loc 1 1792 22 view .LVU306
 1042 0032 F0E7     		b	.L98
 1043              	.LVL100:
 1044              	.L106:
1793:Middlewares/Third_Party/FatFs/src/ff.c **** #if _USE_LFN
 1045              		.loc 1 1793 16 is_stmt 1 discriminator 1 view .LVU307
1793:Middlewares/Third_Party/FatFs/src/ff.c **** #if _USE_LFN
 1046              		.loc 1 1793 21 is_stmt 0 discriminator 1 view .LVU308
 1047 0034 2E25     		movs	r5, #46
 1048 0036 02F8015B 		strb	r5, [r2], #1
 1049              	.LVL101:
1793:Middlewares/Third_Party/FatFs/src/ff.c **** #if _USE_LFN
 1050              		.loc 1 1793 21 discriminator 1 view .LVU309
 1051 003a EEE7     		b	.L99
 1052              	.LVL102:
 1053              	.L107:
1805:Middlewares/Third_Party/FatFs/src/ff.c **** 		}
1806:Middlewares/Third_Party/FatFs/src/ff.c **** 		fno->fattrib = dir[DIR_Attr];				/* Attribute */
 1054              		.loc 1 1806 3 is_stmt 1 view .LVU310
 1055              		.loc 1 1806 16 is_stmt 0 view .LVU311
 1056 003c E37A     		ldrb	r3, [r4, #11]	@ zero_extendqisi2
 1057              	.LVL103:
 1058              		.loc 1 1806 16 view .LVU312
 1059 003e 0B72     		strb	r3, [r1, #8]
1807:Middlewares/Third_Party/FatFs/src/ff.c **** 		fno->fsize = LD_DWORD(dir + DIR_FileSize);	/* Size */
 1060              		.loc 1 1807 3 is_stmt 1 view .LVU313
 1061              		.loc 1 1807 16 is_stmt 0 view .LVU314
 1062 0040 E07F     		ldrb	r0, [r4, #31]	@ zero_extendqisi2
 1063 0042 A37F     		ldrb	r3, [r4, #30]	@ zero_extendqisi2
 1064 0044 1B04     		lsls	r3, r3, #16
 1065 0046 43EA0063 		orr	r3, r3, r0, lsl #24
 1066 004a 607F     		ldrb	r0, [r4, #29]	@ zero_extendqisi2
 1067 004c 43EA0023 		orr	r3, r3, r0, lsl #8
 1068 0050 207F     		ldrb	r0, [r4, #28]	@ zero_extendqisi2
 1069 0052 0343     		orrs	r3, r3, r0
 1070              		.loc 1 1807 14 view .LVU315
 1071 0054 0B60     		str	r3, [r1]
1808:Middlewares/Third_Party/FatFs/src/ff.c **** 		fno->fdate = LD_WORD(dir + DIR_WrtDate);	/* Date */
 1072              		.loc 1 1808 3 is_stmt 1 view .LVU316
 1073              		.loc 1 1808 16 is_stmt 0 view .LVU317
 1074 0056 607E     		ldrb	r0, [r4, #25]	@ zero_extendqisi2
 1075 0058 237E     		ldrb	r3, [r4, #24]	@ zero_extendqisi2
 1076 005a 43EA0023 		orr	r3, r3, r0, lsl #8
 1077              		.loc 1 1808 14 view .LVU318
ARM GAS  /tmp/cciFFPmJ.s 			page 53


 1078 005e 8B80     		strh	r3, [r1, #4]	@ movhi
1809:Middlewares/Third_Party/FatFs/src/ff.c **** 		fno->ftime = LD_WORD(dir + DIR_WrtTime);	/* Time */
 1079              		.loc 1 1809 3 is_stmt 1 view .LVU319
 1080              		.loc 1 1809 16 is_stmt 0 view .LVU320
 1081 0060 E07D     		ldrb	r0, [r4, #23]	@ zero_extendqisi2
 1082 0062 A37D     		ldrb	r3, [r4, #22]	@ zero_extendqisi2
 1083 0064 43EA0023 		orr	r3, r3, r0, lsl #8
 1084              		.loc 1 1809 14 view .LVU321
 1085 0068 CB80     		strh	r3, [r1, #6]	@ movhi
1810:Middlewares/Third_Party/FatFs/src/ff.c **** 	}
1811:Middlewares/Third_Party/FatFs/src/ff.c **** 	*p = 0;		/* Terminate SFN string by a \0 */
 1086              		.loc 1 1811 2 is_stmt 1 view .LVU322
 1087              		.loc 1 1811 5 is_stmt 0 view .LVU323
 1088 006a 0023     		movs	r3, #0
 1089 006c 1370     		strb	r3, [r2]
1812:Middlewares/Third_Party/FatFs/src/ff.c **** 
1813:Middlewares/Third_Party/FatFs/src/ff.c **** #if _USE_LFN
1814:Middlewares/Third_Party/FatFs/src/ff.c **** 	if (fno->lfname) {
1815:Middlewares/Third_Party/FatFs/src/ff.c **** 		i = 0; p = fno->lfname;
1816:Middlewares/Third_Party/FatFs/src/ff.c **** 		if (dp->sect && fno->lfsize && dp->lfn_idx != 0xFFFF) {	/* Get LFN if available */
1817:Middlewares/Third_Party/FatFs/src/ff.c **** 			lfn = dp->lfn;
1818:Middlewares/Third_Party/FatFs/src/ff.c **** 			while ((w = *lfn++) != 0) {		/* Get an LFN character */
1819:Middlewares/Third_Party/FatFs/src/ff.c **** #if !_LFN_UNICODE
1820:Middlewares/Third_Party/FatFs/src/ff.c **** 				w = ff_convert(w, 0);		/* Unicode -> OEM */
1821:Middlewares/Third_Party/FatFs/src/ff.c **** 				if (!w) { i = 0; break; }	/* No LFN if it could not be converted */
1822:Middlewares/Third_Party/FatFs/src/ff.c **** 				if (_DF1S && w >= 0x100)	/* Put 1st byte if it is a DBC (always false on SBCS cfg) */
1823:Middlewares/Third_Party/FatFs/src/ff.c **** 					p[i++] = (TCHAR)(w >> 8);
1824:Middlewares/Third_Party/FatFs/src/ff.c **** #endif
1825:Middlewares/Third_Party/FatFs/src/ff.c **** 				if (i >= fno->lfsize - 1) { i = 0; break; }	/* No LFN if buffer overflow */
1826:Middlewares/Third_Party/FatFs/src/ff.c **** 				p[i++] = (TCHAR)w;
1827:Middlewares/Third_Party/FatFs/src/ff.c **** 			}
1828:Middlewares/Third_Party/FatFs/src/ff.c **** 		}
1829:Middlewares/Third_Party/FatFs/src/ff.c **** 		p[i] = 0;	/* Terminate LFN string by a \0 */
1830:Middlewares/Third_Party/FatFs/src/ff.c **** 	}
1831:Middlewares/Third_Party/FatFs/src/ff.c **** #endif
1832:Middlewares/Third_Party/FatFs/src/ff.c **** }
 1090              		.loc 1 1832 1 view .LVU324
 1091 006e 30BC     		pop	{r4, r5}
 1092              	.LCFI13:
 1093              		.cfi_restore 5
 1094              		.cfi_restore 4
 1095              		.cfi_def_cfa_offset 0
 1096              	.LVL104:
 1097              		.loc 1 1832 1 view .LVU325
 1098 0070 7047     		bx	lr
 1099              	.LVL105:
 1100              	.L103:
1811:Middlewares/Third_Party/FatFs/src/ff.c **** 
 1101              		.loc 1 1811 2 is_stmt 1 view .LVU326
1811:Middlewares/Third_Party/FatFs/src/ff.c **** 
 1102              		.loc 1 1811 5 is_stmt 0 view .LVU327
 1103 0072 0023     		movs	r3, #0
 1104 0074 1370     		strb	r3, [r2]
 1105 0076 7047     		bx	lr
 1106              		.cfi_endproc
 1107              	.LFE92:
 1109              		.section	.rodata.create_name.str1.4,"aMS",%progbits,1
ARM GAS  /tmp/cciFFPmJ.s 			page 54


 1110              		.align	2
 1111              	.LC0:
 1112 0000 222A2B2C 		.ascii	"\"*+,:;<=>?[]|\177\000"
 1112      3A3B3C3D 
 1112      3E3F5B5D 
 1112      7C7F00
 1113              		.section	.text.create_name,"ax",%progbits
 1114              		.align	1
 1115              		.syntax unified
 1116              		.thumb
 1117              		.thumb_func
 1118              		.fpu softvfp
 1120              	create_name:
 1121              	.LVL106:
 1122              	.LFB93:
1833:Middlewares/Third_Party/FatFs/src/ff.c **** #endif /* _FS_MINIMIZE <= 1 || _FS_RPATH >= 2 */
1834:Middlewares/Third_Party/FatFs/src/ff.c **** 
1835:Middlewares/Third_Party/FatFs/src/ff.c **** 
1836:Middlewares/Third_Party/FatFs/src/ff.c **** 
1837:Middlewares/Third_Party/FatFs/src/ff.c **** 
1838:Middlewares/Third_Party/FatFs/src/ff.c **** /*-----------------------------------------------------------------------*/
1839:Middlewares/Third_Party/FatFs/src/ff.c **** /* Pattern matching                                                      */
1840:Middlewares/Third_Party/FatFs/src/ff.c **** /*-----------------------------------------------------------------------*/
1841:Middlewares/Third_Party/FatFs/src/ff.c **** #if _USE_FIND && _FS_MINIMIZE <= 1
1842:Middlewares/Third_Party/FatFs/src/ff.c **** static
1843:Middlewares/Third_Party/FatFs/src/ff.c **** WCHAR get_achar (		/* Get a character and advances ptr 1 or 2 */
1844:Middlewares/Third_Party/FatFs/src/ff.c **** 	const TCHAR** ptr	/* Pointer to pointer to the SBCS/DBCS/Unicode string */
1845:Middlewares/Third_Party/FatFs/src/ff.c **** )
1846:Middlewares/Third_Party/FatFs/src/ff.c **** {
1847:Middlewares/Third_Party/FatFs/src/ff.c **** 	WCHAR chr;
1848:Middlewares/Third_Party/FatFs/src/ff.c **** 
1849:Middlewares/Third_Party/FatFs/src/ff.c **** #if !_LFN_UNICODE
1850:Middlewares/Third_Party/FatFs/src/ff.c **** 	chr = (BYTE)*(*ptr)++;					/* Get a byte */
1851:Middlewares/Third_Party/FatFs/src/ff.c **** 	if (IsLower(chr)) chr -= 0x20;			/* To upper ASCII char */
1852:Middlewares/Third_Party/FatFs/src/ff.c **** 	if (IsDBCS1(chr) && IsDBCS2(**ptr))		/* Get DBC 2nd byte if needed */
1853:Middlewares/Third_Party/FatFs/src/ff.c **** 		chr = chr << 8 | (BYTE)*(*ptr)++;
1854:Middlewares/Third_Party/FatFs/src/ff.c **** #ifdef _EXCVT
1855:Middlewares/Third_Party/FatFs/src/ff.c **** 	if (chr >= 0x80) chr = ExCvt[chr - 0x80];	/* To upper SBCS extended char */
1856:Middlewares/Third_Party/FatFs/src/ff.c **** #endif
1857:Middlewares/Third_Party/FatFs/src/ff.c **** #else
1858:Middlewares/Third_Party/FatFs/src/ff.c **** 	chr = ff_wtoupper(*(*ptr)++);			/* Get a word and to upper */
1859:Middlewares/Third_Party/FatFs/src/ff.c **** #endif
1860:Middlewares/Third_Party/FatFs/src/ff.c **** 	return chr;
1861:Middlewares/Third_Party/FatFs/src/ff.c **** }
1862:Middlewares/Third_Party/FatFs/src/ff.c **** 
1863:Middlewares/Third_Party/FatFs/src/ff.c **** 
1864:Middlewares/Third_Party/FatFs/src/ff.c **** static
1865:Middlewares/Third_Party/FatFs/src/ff.c **** int pattern_matching (	/* Return value: 0:mismatched, 1:matched */
1866:Middlewares/Third_Party/FatFs/src/ff.c **** 	const TCHAR* pat,	/* Matching pattern */
1867:Middlewares/Third_Party/FatFs/src/ff.c **** 	const TCHAR* nam,	/* String to be tested */
1868:Middlewares/Third_Party/FatFs/src/ff.c **** 	int skip,			/* Number of pre-skip chars (number of ?s) */
1869:Middlewares/Third_Party/FatFs/src/ff.c **** 	int inf				/* Infinite search (* specified) */
1870:Middlewares/Third_Party/FatFs/src/ff.c **** )
1871:Middlewares/Third_Party/FatFs/src/ff.c **** {
1872:Middlewares/Third_Party/FatFs/src/ff.c **** 	const TCHAR *pp, *np;
1873:Middlewares/Third_Party/FatFs/src/ff.c **** 	WCHAR pc, nc;
1874:Middlewares/Third_Party/FatFs/src/ff.c **** 	int nm, nx;
ARM GAS  /tmp/cciFFPmJ.s 			page 55


1875:Middlewares/Third_Party/FatFs/src/ff.c **** 
1876:Middlewares/Third_Party/FatFs/src/ff.c **** 
1877:Middlewares/Third_Party/FatFs/src/ff.c **** 	while (skip--) {				/* Pre-skip name chars */
1878:Middlewares/Third_Party/FatFs/src/ff.c **** 		if (!get_achar(&nam)) return 0;	/* Branch mismatched if less name chars */
1879:Middlewares/Third_Party/FatFs/src/ff.c **** 	}
1880:Middlewares/Third_Party/FatFs/src/ff.c **** 	if (!*pat && inf) return 1;		/* (short circuit) */
1881:Middlewares/Third_Party/FatFs/src/ff.c **** 
1882:Middlewares/Third_Party/FatFs/src/ff.c **** 	do {
1883:Middlewares/Third_Party/FatFs/src/ff.c **** 		pp = pat; np = nam;			/* Top of pattern and name to match */
1884:Middlewares/Third_Party/FatFs/src/ff.c **** 		for (;;) {
1885:Middlewares/Third_Party/FatFs/src/ff.c **** 			if (*pp == '?' || *pp == '*') {	/* Wildcard? */
1886:Middlewares/Third_Party/FatFs/src/ff.c **** 				nm = nx = 0;
1887:Middlewares/Third_Party/FatFs/src/ff.c **** 				do {				/* Analyze the wildcard chars */
1888:Middlewares/Third_Party/FatFs/src/ff.c **** 					if (*pp++ == '?') nm++; else nx = 1;
1889:Middlewares/Third_Party/FatFs/src/ff.c **** 				} while (*pp == '?' || *pp == '*');
1890:Middlewares/Third_Party/FatFs/src/ff.c **** 				if (pattern_matching(pp, np, nm, nx)) return 1;	/* Test new branch (recurs upto number of wildc
1891:Middlewares/Third_Party/FatFs/src/ff.c **** 				nc = *np; break;	/* Branch mismatched */
1892:Middlewares/Third_Party/FatFs/src/ff.c **** 			}
1893:Middlewares/Third_Party/FatFs/src/ff.c **** 			pc = get_achar(&pp);	/* Get a pattern char */
1894:Middlewares/Third_Party/FatFs/src/ff.c **** 			nc = get_achar(&np);	/* Get a name char */
1895:Middlewares/Third_Party/FatFs/src/ff.c **** 			if (pc != nc) break;	/* Branch mismatched? */
1896:Middlewares/Third_Party/FatFs/src/ff.c **** 			if (!pc) return 1;		/* Branch matched? (matched at end of both strings) */
1897:Middlewares/Third_Party/FatFs/src/ff.c **** 		}
1898:Middlewares/Third_Party/FatFs/src/ff.c **** 		get_achar(&nam);			/* nam++ */
1899:Middlewares/Third_Party/FatFs/src/ff.c **** 	} while (inf && nc);			/* Retry until end of name if infinite search is specified */
1900:Middlewares/Third_Party/FatFs/src/ff.c **** 
1901:Middlewares/Third_Party/FatFs/src/ff.c **** 	return 0;
1902:Middlewares/Third_Party/FatFs/src/ff.c **** }
1903:Middlewares/Third_Party/FatFs/src/ff.c **** #endif /* _USE_FIND && _FS_MINIMIZE <= 1 */
1904:Middlewares/Third_Party/FatFs/src/ff.c **** 
1905:Middlewares/Third_Party/FatFs/src/ff.c **** 
1906:Middlewares/Third_Party/FatFs/src/ff.c **** 
1907:Middlewares/Third_Party/FatFs/src/ff.c **** 
1908:Middlewares/Third_Party/FatFs/src/ff.c **** /*-----------------------------------------------------------------------*/
1909:Middlewares/Third_Party/FatFs/src/ff.c **** /* Pick a segment and create the object name in directory form           */
1910:Middlewares/Third_Party/FatFs/src/ff.c **** /*-----------------------------------------------------------------------*/
1911:Middlewares/Third_Party/FatFs/src/ff.c **** 
1912:Middlewares/Third_Party/FatFs/src/ff.c **** static
1913:Middlewares/Third_Party/FatFs/src/ff.c **** FRESULT create_name (
1914:Middlewares/Third_Party/FatFs/src/ff.c **** 	DIR* dp,			/* Pointer to the directory object */
1915:Middlewares/Third_Party/FatFs/src/ff.c **** 	const TCHAR** path	/* Pointer to pointer to the segment in the path string */
1916:Middlewares/Third_Party/FatFs/src/ff.c **** )
1917:Middlewares/Third_Party/FatFs/src/ff.c **** {
 1123              		.loc 1 1917 1 is_stmt 1 view -0
 1124              		.cfi_startproc
 1125              		@ args = 0, pretend = 0, frame = 0
 1126              		@ frame_needed = 0, uses_anonymous_args = 0
 1127              		.loc 1 1917 1 is_stmt 0 view .LVU329
 1128 0000 2DE9F84F 		push	{r3, r4, r5, r6, r7, r8, r9, r10, fp, lr}
 1129              	.LCFI14:
 1130              		.cfi_def_cfa_offset 40
 1131              		.cfi_offset 3, -40
 1132              		.cfi_offset 4, -36
 1133              		.cfi_offset 5, -32
 1134              		.cfi_offset 6, -28
 1135              		.cfi_offset 7, -24
 1136              		.cfi_offset 8, -20
ARM GAS  /tmp/cciFFPmJ.s 			page 56


 1137              		.cfi_offset 9, -16
 1138              		.cfi_offset 10, -12
 1139              		.cfi_offset 11, -8
 1140              		.cfi_offset 14, -4
 1141 0004 8946     		mov	r9, r1
1918:Middlewares/Third_Party/FatFs/src/ff.c **** #if _USE_LFN	/* LFN configuration */
1919:Middlewares/Third_Party/FatFs/src/ff.c **** 	BYTE b, cf;
1920:Middlewares/Third_Party/FatFs/src/ff.c **** 	WCHAR w, *lfn;
1921:Middlewares/Third_Party/FatFs/src/ff.c **** 	UINT i, ni, si, di;
1922:Middlewares/Third_Party/FatFs/src/ff.c **** 	const TCHAR *p;
1923:Middlewares/Third_Party/FatFs/src/ff.c **** 
1924:Middlewares/Third_Party/FatFs/src/ff.c **** 	/* Create LFN in Unicode */
1925:Middlewares/Third_Party/FatFs/src/ff.c **** 	for (p = *path; *p == '/' || *p == '\\'; p++) ;	/* Strip duplicated separator */
1926:Middlewares/Third_Party/FatFs/src/ff.c **** 	lfn = dp->lfn;
1927:Middlewares/Third_Party/FatFs/src/ff.c **** 	si = di = 0;
1928:Middlewares/Third_Party/FatFs/src/ff.c **** 	for (;;) {
1929:Middlewares/Third_Party/FatFs/src/ff.c **** 		w = p[si++];					/* Get a character */
1930:Middlewares/Third_Party/FatFs/src/ff.c **** 		if (w < ' ' || w == '/' || w == '\\') break;	/* Break on end of segment */
1931:Middlewares/Third_Party/FatFs/src/ff.c **** 		if (di >= _MAX_LFN)				/* Reject too long name */
1932:Middlewares/Third_Party/FatFs/src/ff.c **** 			return FR_INVALID_NAME;
1933:Middlewares/Third_Party/FatFs/src/ff.c **** #if !_LFN_UNICODE
1934:Middlewares/Third_Party/FatFs/src/ff.c **** 		w &= 0xFF;
1935:Middlewares/Third_Party/FatFs/src/ff.c **** 		if (IsDBCS1(w)) {				/* Check if it is a DBC 1st byte (always false on SBCS cfg) */
1936:Middlewares/Third_Party/FatFs/src/ff.c **** #if _DF1S
1937:Middlewares/Third_Party/FatFs/src/ff.c **** 			b = (BYTE)p[si++];			/* Get 2nd byte */
1938:Middlewares/Third_Party/FatFs/src/ff.c **** 			w = (w << 8) + b;			/* Create a DBC */
1939:Middlewares/Third_Party/FatFs/src/ff.c **** 			if (!IsDBCS2(b))
1940:Middlewares/Third_Party/FatFs/src/ff.c **** 				return FR_INVALID_NAME;	/* Reject invalid sequence */
1941:Middlewares/Third_Party/FatFs/src/ff.c **** #endif
1942:Middlewares/Third_Party/FatFs/src/ff.c **** 		}
1943:Middlewares/Third_Party/FatFs/src/ff.c **** 		w = ff_convert(w, 1);			/* Convert ANSI/OEM to Unicode */
1944:Middlewares/Third_Party/FatFs/src/ff.c **** 		if (!w) return FR_INVALID_NAME;	/* Reject invalid code */
1945:Middlewares/Third_Party/FatFs/src/ff.c **** #endif
1946:Middlewares/Third_Party/FatFs/src/ff.c **** 		if (w < 0x80 && chk_chr("\"*:<>\?|\x7F", w)) /* Reject illegal characters for LFN */
1947:Middlewares/Third_Party/FatFs/src/ff.c **** 			return FR_INVALID_NAME;
1948:Middlewares/Third_Party/FatFs/src/ff.c **** 		lfn[di++] = w;					/* Store the Unicode character */
1949:Middlewares/Third_Party/FatFs/src/ff.c **** 	}
1950:Middlewares/Third_Party/FatFs/src/ff.c **** 	*path = &p[si];						/* Return pointer to the next segment */
1951:Middlewares/Third_Party/FatFs/src/ff.c **** 	cf = (w < ' ') ? NS_LAST : 0;		/* Set last segment flag if end of path */
1952:Middlewares/Third_Party/FatFs/src/ff.c **** #if _FS_RPATH
1953:Middlewares/Third_Party/FatFs/src/ff.c **** 	if ((di == 1 && lfn[di - 1] == '.') || /* Is this a dot entry? */
1954:Middlewares/Third_Party/FatFs/src/ff.c **** 		(di == 2 && lfn[di - 1] == '.' && lfn[di - 2] == '.')) {
1955:Middlewares/Third_Party/FatFs/src/ff.c **** 		lfn[di] = 0;
1956:Middlewares/Third_Party/FatFs/src/ff.c **** 		for (i = 0; i < 11; i++)
1957:Middlewares/Third_Party/FatFs/src/ff.c **** 			dp->fn[i] = (i < di) ? '.' : ' ';
1958:Middlewares/Third_Party/FatFs/src/ff.c **** 		dp->fn[i] = cf | NS_DOT;		/* This is a dot entry */
1959:Middlewares/Third_Party/FatFs/src/ff.c **** 		return FR_OK;
1960:Middlewares/Third_Party/FatFs/src/ff.c **** 	}
1961:Middlewares/Third_Party/FatFs/src/ff.c **** #endif
1962:Middlewares/Third_Party/FatFs/src/ff.c **** 	while (di) {						/* Strip trailing spaces and dots */
1963:Middlewares/Third_Party/FatFs/src/ff.c **** 		w = lfn[di - 1];
1964:Middlewares/Third_Party/FatFs/src/ff.c **** 		if (w != ' ' && w != '.') break;
1965:Middlewares/Third_Party/FatFs/src/ff.c **** 		di--;
1966:Middlewares/Third_Party/FatFs/src/ff.c **** 	}
1967:Middlewares/Third_Party/FatFs/src/ff.c **** 	if (!di) return FR_INVALID_NAME;	/* Reject nul string */
1968:Middlewares/Third_Party/FatFs/src/ff.c **** 
1969:Middlewares/Third_Party/FatFs/src/ff.c **** 	lfn[di] = 0;						/* LFN is created */
ARM GAS  /tmp/cciFFPmJ.s 			page 57


1970:Middlewares/Third_Party/FatFs/src/ff.c **** 
1971:Middlewares/Third_Party/FatFs/src/ff.c **** 	/* Create SFN in directory form */
1972:Middlewares/Third_Party/FatFs/src/ff.c **** 	mem_set(dp->fn, ' ', 11);
1973:Middlewares/Third_Party/FatFs/src/ff.c **** 	for (si = 0; lfn[si] == ' ' || lfn[si] == '.'; si++) ;	/* Strip leading spaces and dots */
1974:Middlewares/Third_Party/FatFs/src/ff.c **** 	if (si) cf |= NS_LOSS | NS_LFN;
1975:Middlewares/Third_Party/FatFs/src/ff.c **** 	while (di && lfn[di - 1] != '.') di--;	/* Find extension (di<=si: no extension) */
1976:Middlewares/Third_Party/FatFs/src/ff.c **** 
1977:Middlewares/Third_Party/FatFs/src/ff.c **** 	b = i = 0; ni = 8;
1978:Middlewares/Third_Party/FatFs/src/ff.c **** 	for (;;) {
1979:Middlewares/Third_Party/FatFs/src/ff.c **** 		w = lfn[si++];					/* Get an LFN character */
1980:Middlewares/Third_Party/FatFs/src/ff.c **** 		if (!w) break;					/* Break on end of the LFN */
1981:Middlewares/Third_Party/FatFs/src/ff.c **** 		if (w == ' ' || (w == '.' && si != di)) {	/* Remove spaces and dots */
1982:Middlewares/Third_Party/FatFs/src/ff.c **** 			cf |= NS_LOSS | NS_LFN; continue;
1983:Middlewares/Third_Party/FatFs/src/ff.c **** 		}
1984:Middlewares/Third_Party/FatFs/src/ff.c **** 
1985:Middlewares/Third_Party/FatFs/src/ff.c **** 		if (i >= ni || si == di) {		/* Extension or end of SFN */
1986:Middlewares/Third_Party/FatFs/src/ff.c **** 			if (ni == 11) {				/* Long extension */
1987:Middlewares/Third_Party/FatFs/src/ff.c **** 				cf |= NS_LOSS | NS_LFN; break;
1988:Middlewares/Third_Party/FatFs/src/ff.c **** 			}
1989:Middlewares/Third_Party/FatFs/src/ff.c **** 			if (si != di) cf |= NS_LOSS | NS_LFN;	/* Out of 8.3 format */
1990:Middlewares/Third_Party/FatFs/src/ff.c **** 			if (si > di) break;			/* No extension */
1991:Middlewares/Third_Party/FatFs/src/ff.c **** 			si = di; i = 8; ni = 11;	/* Enter extension section */
1992:Middlewares/Third_Party/FatFs/src/ff.c **** 			b <<= 2; continue;
1993:Middlewares/Third_Party/FatFs/src/ff.c **** 		}
1994:Middlewares/Third_Party/FatFs/src/ff.c **** 
1995:Middlewares/Third_Party/FatFs/src/ff.c **** 		if (w >= 0x80) {				/* Non ASCII character */
1996:Middlewares/Third_Party/FatFs/src/ff.c **** #ifdef _EXCVT
1997:Middlewares/Third_Party/FatFs/src/ff.c **** 			w = ff_convert(w, 0);		/* Unicode -> OEM code */
1998:Middlewares/Third_Party/FatFs/src/ff.c **** 			if (w) w = ExCvt[w - 0x80];	/* Convert extended character to upper (SBCS) */
1999:Middlewares/Third_Party/FatFs/src/ff.c **** #else
2000:Middlewares/Third_Party/FatFs/src/ff.c **** 			w = ff_convert(ff_wtoupper(w), 0);	/* Upper converted Unicode -> OEM code */
2001:Middlewares/Third_Party/FatFs/src/ff.c **** #endif
2002:Middlewares/Third_Party/FatFs/src/ff.c **** 			cf |= NS_LFN;				/* Force create LFN entry */
2003:Middlewares/Third_Party/FatFs/src/ff.c **** 		}
2004:Middlewares/Third_Party/FatFs/src/ff.c **** 
2005:Middlewares/Third_Party/FatFs/src/ff.c **** 		if (_DF1S && w >= 0x100) {		/* DBC (always false at SBCS cfg) */
2006:Middlewares/Third_Party/FatFs/src/ff.c **** 			if (i >= ni - 1) {
2007:Middlewares/Third_Party/FatFs/src/ff.c **** 				cf |= NS_LOSS | NS_LFN; i = ni; continue;
2008:Middlewares/Third_Party/FatFs/src/ff.c **** 			}
2009:Middlewares/Third_Party/FatFs/src/ff.c **** 			dp->fn[i++] = (BYTE)(w >> 8);
2010:Middlewares/Third_Party/FatFs/src/ff.c **** 		} else {						/* SBC */
2011:Middlewares/Third_Party/FatFs/src/ff.c **** 			if (!w || chk_chr("+,;=[]", w)) {	/* Replace illegal characters for SFN */
2012:Middlewares/Third_Party/FatFs/src/ff.c **** 				w = '_'; cf |= NS_LOSS | NS_LFN;/* Lossy conversion */
2013:Middlewares/Third_Party/FatFs/src/ff.c **** 			} else {
2014:Middlewares/Third_Party/FatFs/src/ff.c **** 				if (IsUpper(w)) {		/* ASCII large capital */
2015:Middlewares/Third_Party/FatFs/src/ff.c **** 					b |= 2;
2016:Middlewares/Third_Party/FatFs/src/ff.c **** 				} else {
2017:Middlewares/Third_Party/FatFs/src/ff.c **** 					if (IsLower(w)) {	/* ASCII small capital */
2018:Middlewares/Third_Party/FatFs/src/ff.c **** 						b |= 1; w -= 0x20;
2019:Middlewares/Third_Party/FatFs/src/ff.c **** 					}
2020:Middlewares/Third_Party/FatFs/src/ff.c **** 				}
2021:Middlewares/Third_Party/FatFs/src/ff.c **** 			}
2022:Middlewares/Third_Party/FatFs/src/ff.c **** 		}
2023:Middlewares/Third_Party/FatFs/src/ff.c **** 		dp->fn[i++] = (BYTE)w;
2024:Middlewares/Third_Party/FatFs/src/ff.c **** 	}
2025:Middlewares/Third_Party/FatFs/src/ff.c **** 
2026:Middlewares/Third_Party/FatFs/src/ff.c **** 	if (dp->fn[0] == DDEM) dp->fn[0] = RDDEM;	/* If the first character collides with deleted mark, re
ARM GAS  /tmp/cciFFPmJ.s 			page 58


2027:Middlewares/Third_Party/FatFs/src/ff.c **** 
2028:Middlewares/Third_Party/FatFs/src/ff.c **** 	if (ni == 8) b <<= 2;
2029:Middlewares/Third_Party/FatFs/src/ff.c **** 	if ((b & 0x0C) == 0x0C || (b & 0x03) == 0x03)	/* Create LFN entry when there are composite capital
2030:Middlewares/Third_Party/FatFs/src/ff.c **** 		cf |= NS_LFN;
2031:Middlewares/Third_Party/FatFs/src/ff.c **** 	if (!(cf & NS_LFN)) {						/* When LFN is in 8.3 format without extended character, NT flags are c
2032:Middlewares/Third_Party/FatFs/src/ff.c **** 		if ((b & 0x03) == 0x01) cf |= NS_EXT;	/* NT flag (Extension has only small capital) */
2033:Middlewares/Third_Party/FatFs/src/ff.c **** 		if ((b & 0x0C) == 0x04) cf |= NS_BODY;	/* NT flag (Filename has only small capital) */
2034:Middlewares/Third_Party/FatFs/src/ff.c **** 	}
2035:Middlewares/Third_Party/FatFs/src/ff.c **** 
2036:Middlewares/Third_Party/FatFs/src/ff.c **** 	dp->fn[NSFLAG] = cf;	/* SFN is created */
2037:Middlewares/Third_Party/FatFs/src/ff.c **** 
2038:Middlewares/Third_Party/FatFs/src/ff.c **** 	return FR_OK;
2039:Middlewares/Third_Party/FatFs/src/ff.c **** 
2040:Middlewares/Third_Party/FatFs/src/ff.c **** 
2041:Middlewares/Third_Party/FatFs/src/ff.c **** #else	/* Non-LFN configuration */
2042:Middlewares/Third_Party/FatFs/src/ff.c **** 	BYTE b, c, d, *sfn;
 1142              		.loc 1 2042 2 is_stmt 1 view .LVU330
2043:Middlewares/Third_Party/FatFs/src/ff.c **** 	UINT ni, si, i;
 1143              		.loc 1 2043 2 view .LVU331
2044:Middlewares/Third_Party/FatFs/src/ff.c **** 	const char *p;
 1144              		.loc 1 2044 2 view .LVU332
2045:Middlewares/Third_Party/FatFs/src/ff.c **** 
2046:Middlewares/Third_Party/FatFs/src/ff.c **** 	/* Create file name in directory form */
2047:Middlewares/Third_Party/FatFs/src/ff.c **** 	for (p = *path; *p == '/' || *p == '\\'; p++) ;	/* Strip duplicated separator */
 1145              		.loc 1 2047 2 view .LVU333
 1146              		.loc 1 2047 9 is_stmt 0 view .LVU334
 1147 0006 0C68     		ldr	r4, [r1]
 1148              	.LVL107:
 1149              		.loc 1 2047 2 view .LVU335
 1150 0008 00E0     		b	.L109
 1151              	.L110:
 1152              		.loc 1 2047 48 is_stmt 1 discriminator 5 view .LVU336
 1153              		.loc 1 2047 43 discriminator 5 view .LVU337
 1154              		.loc 1 2047 44 is_stmt 0 discriminator 5 view .LVU338
 1155 000a 0134     		adds	r4, r4, #1
 1156              	.LVL108:
 1157              	.L109:
 1158              		.loc 1 2047 18 is_stmt 1 discriminator 1 view .LVU339
 1159 000c 2378     		ldrb	r3, [r4]	@ zero_extendqisi2
 1160              		.loc 1 2047 2 is_stmt 0 discriminator 1 view .LVU340
 1161 000e 2F2B     		cmp	r3, #47
 1162 0010 FBD0     		beq	.L110
 1163              		.loc 1 2047 28 discriminator 4 view .LVU341
 1164 0012 5C2B     		cmp	r3, #92
 1165 0014 F9D0     		beq	.L110
2048:Middlewares/Third_Party/FatFs/src/ff.c **** 	sfn = dp->fn;
 1166              		.loc 1 2048 2 is_stmt 1 view .LVU342
 1167              		.loc 1 2048 6 is_stmt 0 view .LVU343
 1168 0016 D0F818A2 		ldr	r10, [r0, #536]
 1169              	.LVL109:
2049:Middlewares/Third_Party/FatFs/src/ff.c **** 	mem_set(sfn, ' ', 11);
 1170              		.loc 1 2049 2 is_stmt 1 view .LVU344
 1171 001a 0B22     		movs	r2, #11
 1172 001c 2021     		movs	r1, #32
 1173              	.LVL110:
 1174              		.loc 1 2049 2 is_stmt 0 view .LVU345
 1175 001e 5046     		mov	r0, r10
ARM GAS  /tmp/cciFFPmJ.s 			page 59


 1176              	.LVL111:
 1177              		.loc 1 2049 2 view .LVU346
 1178 0020 FFF7FEFF 		bl	mem_set
 1179              	.LVL112:
2050:Middlewares/Third_Party/FatFs/src/ff.c **** 	si = i = b = 0; ni = 8;
 1180              		.loc 1 2050 2 is_stmt 1 view .LVU347
 1181              		.loc 1 2050 18 view .LVU348
 1182              		.loc 1 2050 9 is_stmt 0 view .LVU349
 1183 0024 0026     		movs	r6, #0
 1184              		.loc 1 2050 5 view .LVU350
 1185 0026 3346     		mov	r3, r6
 1186              		.loc 1 2050 21 view .LVU351
 1187 0028 4FF00808 		mov	r8, #8
 1188              		.loc 1 2050 13 view .LVU352
 1189 002c 3746     		mov	r7, r6
 1190 002e 19E0     		b	.L111
 1191              	.LVL113:
 1192              	.L132:
2051:Middlewares/Third_Party/FatFs/src/ff.c **** #if _FS_RPATH
2052:Middlewares/Third_Party/FatFs/src/ff.c **** 	if (p[si] == '.') { /* Is this a dot entry? */
2053:Middlewares/Third_Party/FatFs/src/ff.c **** 		for (;;) {
2054:Middlewares/Third_Party/FatFs/src/ff.c **** 			c = (BYTE)p[si++];
2055:Middlewares/Third_Party/FatFs/src/ff.c **** 			if (c != '.' || si >= 3) break;
2056:Middlewares/Third_Party/FatFs/src/ff.c **** 			sfn[i++] = c;
2057:Middlewares/Third_Party/FatFs/src/ff.c **** 		}
2058:Middlewares/Third_Party/FatFs/src/ff.c **** 		if (c != '/' && c != '\\' && c > ' ') return FR_INVALID_NAME;
2059:Middlewares/Third_Party/FatFs/src/ff.c **** 		*path = &p[si];									/* Return pointer to the next segment */
2060:Middlewares/Third_Party/FatFs/src/ff.c **** 		sfn[NSFLAG] = (c <= ' ') ? NS_LAST | NS_DOT : NS_DOT;	/* Set last segment flag if end of path */
2061:Middlewares/Third_Party/FatFs/src/ff.c **** 		return FR_OK;
2062:Middlewares/Third_Party/FatFs/src/ff.c **** 	}
2063:Middlewares/Third_Party/FatFs/src/ff.c **** #endif
2064:Middlewares/Third_Party/FatFs/src/ff.c **** 	for (;;) {
2065:Middlewares/Third_Party/FatFs/src/ff.c **** 		c = (BYTE)p[si++];
2066:Middlewares/Third_Party/FatFs/src/ff.c **** 		if (c <= ' ' || c == '/' || c == '\\') break;	/* Break on end of segment */
2067:Middlewares/Third_Party/FatFs/src/ff.c **** 		if (c == '.' || i >= ni) {
2068:Middlewares/Third_Party/FatFs/src/ff.c **** 			if (ni != 8 || c != '.') return FR_INVALID_NAME;
2069:Middlewares/Third_Party/FatFs/src/ff.c **** 			i = 8; ni = 11;
 1193              		.loc 1 2069 4 is_stmt 1 view .LVU353
 1194              		.loc 1 2069 11 view .LVU354
2070:Middlewares/Third_Party/FatFs/src/ff.c **** 			b <<= 2; continue;
 1195              		.loc 1 2070 4 view .LVU355
 1196              		.loc 1 2070 6 is_stmt 0 view .LVU356
 1197 0030 BF00     		lsls	r7, r7, #2
 1198              	.LVL114:
 1199              		.loc 1 2070 6 view .LVU357
 1200 0032 FFB2     		uxtb	r7, r7
 1201              	.LVL115:
 1202              		.loc 1 2070 13 is_stmt 1 view .LVU358
2069:Middlewares/Third_Party/FatFs/src/ff.c **** 			b <<= 2; continue;
 1203              		.loc 1 2069 6 is_stmt 0 view .LVU359
 1204 0034 4646     		mov	r6, r8
2069:Middlewares/Third_Party/FatFs/src/ff.c **** 			b <<= 2; continue;
 1205              		.loc 1 2069 14 view .LVU360
 1206 0036 4FF00B08 		mov	r8, #11
 1207              		.loc 1 2070 4 view .LVU361
 1208 003a 12E0     		b	.L116
 1209              	.LVL116:
ARM GAS  /tmp/cciFFPmJ.s 			page 60


 1210              	.L114:
2071:Middlewares/Third_Party/FatFs/src/ff.c **** 		}
2072:Middlewares/Third_Party/FatFs/src/ff.c **** 		if (c >= 0x80) {				/* Extended character? */
 1211              		.loc 1 2072 3 is_stmt 1 view .LVU362
 1212              		.loc 1 2072 6 is_stmt 0 view .LVU363
 1213 003c 15F0800F 		tst	r5, #128
 1214 0040 25D1     		bne	.L131
 1215              	.L117:
2073:Middlewares/Third_Party/FatFs/src/ff.c **** 			b |= 3;						/* Eliminate NT flag */
2074:Middlewares/Third_Party/FatFs/src/ff.c **** #ifdef _EXCVT
2075:Middlewares/Third_Party/FatFs/src/ff.c **** 			c = ExCvt[c - 0x80];		/* To upper extended characters (SBCS cfg) */
2076:Middlewares/Third_Party/FatFs/src/ff.c **** #else
2077:Middlewares/Third_Party/FatFs/src/ff.c **** #if !_DF1S
2078:Middlewares/Third_Party/FatFs/src/ff.c **** 			return FR_INVALID_NAME;		/* Reject extended characters (ASCII cfg) */
2079:Middlewares/Third_Party/FatFs/src/ff.c **** #endif
2080:Middlewares/Third_Party/FatFs/src/ff.c **** #endif
2081:Middlewares/Third_Party/FatFs/src/ff.c **** 		}
2082:Middlewares/Third_Party/FatFs/src/ff.c **** 		if (IsDBCS1(c)) {				/* Check if it is a DBC 1st byte (always false on SBCS cfg) */
 1216              		.loc 1 2082 3 is_stmt 1 view .LVU364
2083:Middlewares/Third_Party/FatFs/src/ff.c **** 			d = (BYTE)p[si++];			/* Get 2nd byte */
2084:Middlewares/Third_Party/FatFs/src/ff.c **** 			if (!IsDBCS2(d) || i >= ni - 1)	/* Reject invalid DBC */
2085:Middlewares/Third_Party/FatFs/src/ff.c **** 				return FR_INVALID_NAME;
2086:Middlewares/Third_Party/FatFs/src/ff.c **** 			sfn[i++] = c;
2087:Middlewares/Third_Party/FatFs/src/ff.c **** 			sfn[i++] = d;
2088:Middlewares/Third_Party/FatFs/src/ff.c **** 		} else {						/* SBC */
2089:Middlewares/Third_Party/FatFs/src/ff.c **** 			if (chk_chr("\"*+,:;<=>\?[]|\x7F", c))	/* Reject illegal chrs for SFN */
 1217              		.loc 1 2089 4 view .LVU365
 1218              		.loc 1 2089 8 is_stmt 0 view .LVU366
 1219 0042 2946     		mov	r1, r5
 1220 0044 3148     		ldr	r0, .L137
 1221 0046 FFF7FEFF 		bl	chk_chr
 1222              	.LVL117:
 1223              		.loc 1 2089 7 view .LVU367
 1224 004a 0028     		cmp	r0, #0
 1225 004c 5AD1     		bne	.L127
2090:Middlewares/Third_Party/FatFs/src/ff.c **** 				return FR_INVALID_NAME;
2091:Middlewares/Third_Party/FatFs/src/ff.c **** 			if (IsUpper(c)) {			/* ASCII large capital? */
 1226              		.loc 1 2091 4 is_stmt 1 view .LVU368
 1227              		.loc 1 2091 8 is_stmt 0 view .LVU369
 1228 004e A5F14103 		sub	r3, r5, #65
 1229 0052 DBB2     		uxtb	r3, r3
 1230              		.loc 1 2091 7 view .LVU370
 1231 0054 192B     		cmp	r3, #25
 1232 0056 20D8     		bhi	.L118
2092:Middlewares/Third_Party/FatFs/src/ff.c **** 				b |= 2;
 1233              		.loc 1 2092 5 is_stmt 1 view .LVU371
 1234              		.loc 1 2092 7 is_stmt 0 view .LVU372
 1235 0058 47F00207 		orr	r7, r7, #2
 1236              	.LVL118:
 1237              	.L119:
2093:Middlewares/Third_Party/FatFs/src/ff.c **** 			} else {
2094:Middlewares/Third_Party/FatFs/src/ff.c **** 				if (IsLower(c)) {		/* ASCII small capital? */
2095:Middlewares/Third_Party/FatFs/src/ff.c **** 					b |= 1; c -= 0x20;
2096:Middlewares/Third_Party/FatFs/src/ff.c **** 				}
2097:Middlewares/Third_Party/FatFs/src/ff.c **** 			}
2098:Middlewares/Third_Party/FatFs/src/ff.c **** 			sfn[i++] = c;
 1238              		.loc 1 2098 4 is_stmt 1 view .LVU373
ARM GAS  /tmp/cciFFPmJ.s 			page 61


 1239              		.loc 1 2098 13 is_stmt 0 view .LVU374
 1240 005c 0AF80650 		strb	r5, [r10, r6]
 1241              		.loc 1 2098 9 view .LVU375
 1242 0060 0136     		adds	r6, r6, #1
 1243              	.LVL119:
 1244              	.L116:
 1245              		.loc 1 2098 9 view .LVU376
 1246 0062 5B46     		mov	r3, fp
 1247              	.LVL120:
 1248              	.L111:
2064:Middlewares/Third_Party/FatFs/src/ff.c **** 		c = (BYTE)p[si++];
 1249              		.loc 1 2064 2 is_stmt 1 view .LVU377
2065:Middlewares/Third_Party/FatFs/src/ff.c **** 		if (c <= ' ' || c == '/' || c == '\\') break;	/* Break on end of segment */
 1250              		.loc 1 2065 3 view .LVU378
2065:Middlewares/Third_Party/FatFs/src/ff.c **** 		if (c <= ' ' || c == '/' || c == '\\') break;	/* Break on end of segment */
 1251              		.loc 1 2065 17 is_stmt 0 view .LVU379
 1252 0064 03F1010B 		add	fp, r3, #1
 1253              	.LVL121:
2065:Middlewares/Third_Party/FatFs/src/ff.c **** 		if (c <= ' ' || c == '/' || c == '\\') break;	/* Break on end of segment */
 1254              		.loc 1 2065 5 view .LVU380
 1255 0068 E55C     		ldrb	r5, [r4, r3]	@ zero_extendqisi2
 1256              	.LVL122:
2066:Middlewares/Third_Party/FatFs/src/ff.c **** 		if (c == '.' || i >= ni) {
 1257              		.loc 1 2066 3 is_stmt 1 view .LVU381
2066:Middlewares/Third_Party/FatFs/src/ff.c **** 		if (c == '.' || i >= ni) {
 1258              		.loc 1 2066 6 is_stmt 0 view .LVU382
 1259 006a 202D     		cmp	r5, #32
 1260 006c 1FD9     		bls	.L112
2066:Middlewares/Third_Party/FatFs/src/ff.c **** 		if (c == '.' || i >= ni) {
 1261              		.loc 1 2066 16 discriminator 1 view .LVU383
 1262 006e 2F2D     		cmp	r5, #47
 1263 0070 1DD0     		beq	.L112
2066:Middlewares/Third_Party/FatFs/src/ff.c **** 		if (c == '.' || i >= ni) {
 1264              		.loc 1 2066 28 discriminator 2 view .LVU384
 1265 0072 5C2D     		cmp	r5, #92
 1266 0074 1BD0     		beq	.L112
2067:Middlewares/Third_Party/FatFs/src/ff.c **** 			if (ni != 8 || c != '.') return FR_INVALID_NAME;
 1267              		.loc 1 2067 3 is_stmt 1 view .LVU385
2067:Middlewares/Third_Party/FatFs/src/ff.c **** 			if (ni != 8 || c != '.') return FR_INVALID_NAME;
 1268              		.loc 1 2067 6 is_stmt 0 view .LVU386
 1269 0076 2E2D     		cmp	r5, #46
 1270 0078 01D0     		beq	.L113
2067:Middlewares/Third_Party/FatFs/src/ff.c **** 			if (ni != 8 || c != '.') return FR_INVALID_NAME;
 1271              		.loc 1 2067 16 discriminator 1 view .LVU387
 1272 007a B045     		cmp	r8, r6
 1273 007c DED8     		bhi	.L114
 1274              	.L113:
2068:Middlewares/Third_Party/FatFs/src/ff.c **** 			i = 8; ni = 11;
 1275              		.loc 1 2068 4 is_stmt 1 view .LVU388
2068:Middlewares/Third_Party/FatFs/src/ff.c **** 			i = 8; ni = 11;
 1276              		.loc 1 2068 7 is_stmt 0 view .LVU389
 1277 007e B8F1080F 		cmp	r8, #8
 1278 0082 3DD1     		bne	.L125
2068:Middlewares/Third_Party/FatFs/src/ff.c **** 			i = 8; ni = 11;
 1279              		.loc 1 2068 16 discriminator 2 view .LVU390
 1280 0084 2E2D     		cmp	r5, #46
 1281 0086 D3D0     		beq	.L132
ARM GAS  /tmp/cciFFPmJ.s 			page 62


2068:Middlewares/Third_Party/FatFs/src/ff.c **** 			i = 8; ni = 11;
 1282              		.loc 1 2068 36 view .LVU391
 1283 0088 0620     		movs	r0, #6
 1284              	.LVL123:
 1285              	.L115:
2099:Middlewares/Third_Party/FatFs/src/ff.c **** 		}
2100:Middlewares/Third_Party/FatFs/src/ff.c **** 	}
2101:Middlewares/Third_Party/FatFs/src/ff.c **** 	*path = &p[si];						/* Return pointer to the next segment */
2102:Middlewares/Third_Party/FatFs/src/ff.c **** 	c = (c <= ' ') ? NS_LAST : 0;		/* Set last segment flag if end of path */
2103:Middlewares/Third_Party/FatFs/src/ff.c **** 
2104:Middlewares/Third_Party/FatFs/src/ff.c **** 	if (!i) return FR_INVALID_NAME;		/* Reject nul string */
2105:Middlewares/Third_Party/FatFs/src/ff.c **** 	if (sfn[0] == DDEM) sfn[0] = RDDEM;	/* When first character collides with DDEM, replace it with RD
2106:Middlewares/Third_Party/FatFs/src/ff.c **** 
2107:Middlewares/Third_Party/FatFs/src/ff.c **** 	if (ni == 8) b <<= 2;
2108:Middlewares/Third_Party/FatFs/src/ff.c **** 	if ((b & 0x03) == 0x01) c |= NS_EXT;	/* NT flag (Name extension has only small capital) */
2109:Middlewares/Third_Party/FatFs/src/ff.c **** 	if ((b & 0x0C) == 0x04) c |= NS_BODY;	/* NT flag (Name body has only small capital) */
2110:Middlewares/Third_Party/FatFs/src/ff.c **** 
2111:Middlewares/Third_Party/FatFs/src/ff.c **** 	sfn[NSFLAG] = c;		/* Store NT flag, File name is created */
2112:Middlewares/Third_Party/FatFs/src/ff.c **** 
2113:Middlewares/Third_Party/FatFs/src/ff.c **** 	return FR_OK;
2114:Middlewares/Third_Party/FatFs/src/ff.c **** #endif
2115:Middlewares/Third_Party/FatFs/src/ff.c **** }
 1286              		.loc 1 2115 1 view .LVU392
 1287 008a BDE8F88F 		pop	{r3, r4, r5, r6, r7, r8, r9, r10, fp, pc}
 1288              	.LVL124:
 1289              	.L131:
2073:Middlewares/Third_Party/FatFs/src/ff.c **** #ifdef _EXCVT
 1290              		.loc 1 2073 4 is_stmt 1 view .LVU393
2073:Middlewares/Third_Party/FatFs/src/ff.c **** #ifdef _EXCVT
 1291              		.loc 1 2073 6 is_stmt 0 view .LVU394
 1292 008e 47F00307 		orr	r7, r7, #3
 1293              	.LVL125:
2075:Middlewares/Third_Party/FatFs/src/ff.c **** #else
 1294              		.loc 1 2075 4 is_stmt 1 view .LVU395
2075:Middlewares/Third_Party/FatFs/src/ff.c **** #else
 1295              		.loc 1 2075 16 is_stmt 0 view .LVU396
 1296 0092 803D     		subs	r5, r5, #128
 1297              	.LVL126:
2075:Middlewares/Third_Party/FatFs/src/ff.c **** #else
 1298              		.loc 1 2075 6 view .LVU397
 1299 0094 1E4B     		ldr	r3, .L137+4
 1300 0096 5D5D     		ldrb	r5, [r3, r5]	@ zero_extendqisi2
 1301              	.LVL127:
2075:Middlewares/Third_Party/FatFs/src/ff.c **** #else
 1302              		.loc 1 2075 6 view .LVU398
 1303 0098 D3E7     		b	.L117
 1304              	.L118:
2094:Middlewares/Third_Party/FatFs/src/ff.c **** 					b |= 1; c -= 0x20;
 1305              		.loc 1 2094 5 is_stmt 1 view .LVU399
2094:Middlewares/Third_Party/FatFs/src/ff.c **** 					b |= 1; c -= 0x20;
 1306              		.loc 1 2094 9 is_stmt 0 view .LVU400
 1307 009a A5F16103 		sub	r3, r5, #97
 1308 009e DBB2     		uxtb	r3, r3
2094:Middlewares/Third_Party/FatFs/src/ff.c **** 					b |= 1; c -= 0x20;
 1309              		.loc 1 2094 8 view .LVU401
 1310 00a0 192B     		cmp	r3, #25
 1311 00a2 DBD8     		bhi	.L119
ARM GAS  /tmp/cciFFPmJ.s 			page 63


2095:Middlewares/Third_Party/FatFs/src/ff.c **** 				}
 1312              		.loc 1 2095 6 is_stmt 1 view .LVU402
2095:Middlewares/Third_Party/FatFs/src/ff.c **** 				}
 1313              		.loc 1 2095 8 is_stmt 0 view .LVU403
 1314 00a4 47F00107 		orr	r7, r7, #1
 1315              	.LVL128:
2095:Middlewares/Third_Party/FatFs/src/ff.c **** 				}
 1316              		.loc 1 2095 14 is_stmt 1 view .LVU404
2095:Middlewares/Third_Party/FatFs/src/ff.c **** 				}
 1317              		.loc 1 2095 16 is_stmt 0 view .LVU405
 1318 00a8 203D     		subs	r5, r5, #32
 1319              	.LVL129:
2095:Middlewares/Third_Party/FatFs/src/ff.c **** 				}
 1320              		.loc 1 2095 16 view .LVU406
 1321 00aa EDB2     		uxtb	r5, r5
 1322              	.LVL130:
2095:Middlewares/Third_Party/FatFs/src/ff.c **** 				}
 1323              		.loc 1 2095 16 view .LVU407
 1324 00ac D6E7     		b	.L119
 1325              	.L112:
2101:Middlewares/Third_Party/FatFs/src/ff.c **** 	c = (c <= ' ') ? NS_LAST : 0;		/* Set last segment flag if end of path */
 1326              		.loc 1 2101 2 is_stmt 1 view .LVU408
2101:Middlewares/Third_Party/FatFs/src/ff.c **** 	c = (c <= ' ') ? NS_LAST : 0;		/* Set last segment flag if end of path */
 1327              		.loc 1 2101 10 is_stmt 0 view .LVU409
 1328 00ae 5C44     		add	r4, r4, fp
 1329              	.LVL131:
2101:Middlewares/Third_Party/FatFs/src/ff.c **** 	c = (c <= ' ') ? NS_LAST : 0;		/* Set last segment flag if end of path */
 1330              		.loc 1 2101 8 view .LVU410
 1331 00b0 C9F80040 		str	r4, [r9]
2102:Middlewares/Third_Party/FatFs/src/ff.c **** 
 1332              		.loc 1 2102 2 is_stmt 1 view .LVU411
2102:Middlewares/Third_Party/FatFs/src/ff.c **** 
 1333              		.loc 1 2102 4 is_stmt 0 view .LVU412
 1334 00b4 202D     		cmp	r5, #32
 1335 00b6 14D8     		bhi	.L128
 1336 00b8 0423     		movs	r3, #4
 1337              	.L120:
 1338              	.LVL132:
2104:Middlewares/Third_Party/FatFs/src/ff.c **** 	if (sfn[0] == DDEM) sfn[0] = RDDEM;	/* When first character collides with DDEM, replace it with RD
 1339              		.loc 1 2104 2 is_stmt 1 discriminator 4 view .LVU413
2104:Middlewares/Third_Party/FatFs/src/ff.c **** 	if (sfn[0] == DDEM) sfn[0] = RDDEM;	/* When first character collides with DDEM, replace it with RD
 1340              		.loc 1 2104 5 is_stmt 0 discriminator 4 view .LVU414
 1341 00ba 2EB3     		cbz	r6, .L129
2105:Middlewares/Third_Party/FatFs/src/ff.c **** 
 1342              		.loc 1 2105 2 is_stmt 1 view .LVU415
2105:Middlewares/Third_Party/FatFs/src/ff.c **** 
 1343              		.loc 1 2105 9 is_stmt 0 view .LVU416
 1344 00bc 9AF80020 		ldrb	r2, [r10]	@ zero_extendqisi2
2105:Middlewares/Third_Party/FatFs/src/ff.c **** 
 1345              		.loc 1 2105 5 view .LVU417
 1346 00c0 E52A     		cmp	r2, #229
 1347 00c2 10D0     		beq	.L133
 1348              	.L121:
2107:Middlewares/Third_Party/FatFs/src/ff.c **** 	if ((b & 0x03) == 0x01) c |= NS_EXT;	/* NT flag (Name extension has only small capital) */
 1349              		.loc 1 2107 2 is_stmt 1 view .LVU418
2107:Middlewares/Third_Party/FatFs/src/ff.c **** 	if ((b & 0x03) == 0x01) c |= NS_EXT;	/* NT flag (Name extension has only small capital) */
 1350              		.loc 1 2107 5 is_stmt 0 view .LVU419
ARM GAS  /tmp/cciFFPmJ.s 			page 64


 1351 00c4 B8F1080F 		cmp	r8, #8
 1352 00c8 11D0     		beq	.L134
 1353              	.L122:
2108:Middlewares/Third_Party/FatFs/src/ff.c **** 	if ((b & 0x0C) == 0x04) c |= NS_BODY;	/* NT flag (Name body has only small capital) */
 1354              		.loc 1 2108 2 is_stmt 1 view .LVU420
2108:Middlewares/Third_Party/FatFs/src/ff.c **** 	if ((b & 0x0C) == 0x04) c |= NS_BODY;	/* NT flag (Name body has only small capital) */
 1355              		.loc 1 2108 5 is_stmt 0 view .LVU421
 1356 00ca 07F00302 		and	r2, r7, #3
 1357 00ce 012A     		cmp	r2, #1
 1358 00d0 10D0     		beq	.L135
 1359              	.L123:
2109:Middlewares/Third_Party/FatFs/src/ff.c **** 
 1360              		.loc 1 2109 2 is_stmt 1 view .LVU422
2109:Middlewares/Third_Party/FatFs/src/ff.c **** 
 1361              		.loc 1 2109 5 is_stmt 0 view .LVU423
 1362 00d2 07F00C07 		and	r7, r7, #12
 1363              	.LVL133:
2109:Middlewares/Third_Party/FatFs/src/ff.c **** 
 1364              		.loc 1 2109 5 view .LVU424
 1365 00d6 042F     		cmp	r7, #4
 1366 00d8 0FD0     		beq	.L136
 1367              	.L124:
2111:Middlewares/Third_Party/FatFs/src/ff.c **** 
 1368              		.loc 1 2111 2 is_stmt 1 view .LVU425
2111:Middlewares/Third_Party/FatFs/src/ff.c **** 
 1369              		.loc 1 2111 14 is_stmt 0 view .LVU426
 1370 00da 8AF80B30 		strb	r3, [r10, #11]
2113:Middlewares/Third_Party/FatFs/src/ff.c **** #endif
 1371              		.loc 1 2113 2 is_stmt 1 view .LVU427
2113:Middlewares/Third_Party/FatFs/src/ff.c **** #endif
 1372              		.loc 1 2113 9 is_stmt 0 view .LVU428
 1373 00de 0020     		movs	r0, #0
 1374 00e0 D3E7     		b	.L115
 1375              	.LVL134:
 1376              	.L128:
2102:Middlewares/Third_Party/FatFs/src/ff.c **** 
 1377              		.loc 1 2102 4 view .LVU429
 1378 00e2 0023     		movs	r3, #0
 1379 00e4 E9E7     		b	.L120
 1380              	.LVL135:
 1381              	.L133:
2105:Middlewares/Third_Party/FatFs/src/ff.c **** 
 1382              		.loc 1 2105 22 is_stmt 1 discriminator 1 view .LVU430
2105:Middlewares/Third_Party/FatFs/src/ff.c **** 
 1383              		.loc 1 2105 29 is_stmt 0 discriminator 1 view .LVU431
 1384 00e6 0522     		movs	r2, #5
 1385 00e8 8AF80020 		strb	r2, [r10]
 1386 00ec EAE7     		b	.L121
 1387              	.L134:
2107:Middlewares/Third_Party/FatFs/src/ff.c **** 	if ((b & 0x03) == 0x01) c |= NS_EXT;	/* NT flag (Name extension has only small capital) */
 1388              		.loc 1 2107 15 is_stmt 1 discriminator 1 view .LVU432
2107:Middlewares/Third_Party/FatFs/src/ff.c **** 	if ((b & 0x03) == 0x01) c |= NS_EXT;	/* NT flag (Name extension has only small capital) */
 1389              		.loc 1 2107 17 is_stmt 0 discriminator 1 view .LVU433
 1390 00ee BF00     		lsls	r7, r7, #2
 1391              	.LVL136:
2107:Middlewares/Third_Party/FatFs/src/ff.c **** 	if ((b & 0x03) == 0x01) c |= NS_EXT;	/* NT flag (Name extension has only small capital) */
 1392              		.loc 1 2107 17 discriminator 1 view .LVU434
ARM GAS  /tmp/cciFFPmJ.s 			page 65


 1393 00f0 FFB2     		uxtb	r7, r7
 1394              	.LVL137:
2107:Middlewares/Third_Party/FatFs/src/ff.c **** 	if ((b & 0x03) == 0x01) c |= NS_EXT;	/* NT flag (Name extension has only small capital) */
 1395              		.loc 1 2107 17 discriminator 1 view .LVU435
 1396 00f2 EAE7     		b	.L122
 1397              	.L135:
2108:Middlewares/Third_Party/FatFs/src/ff.c **** 	if ((b & 0x0C) == 0x04) c |= NS_BODY;	/* NT flag (Name body has only small capital) */
 1398              		.loc 1 2108 26 is_stmt 1 discriminator 1 view .LVU436
2108:Middlewares/Third_Party/FatFs/src/ff.c **** 	if ((b & 0x0C) == 0x04) c |= NS_BODY;	/* NT flag (Name body has only small capital) */
 1399              		.loc 1 2108 28 is_stmt 0 discriminator 1 view .LVU437
 1400 00f4 43F01003 		orr	r3, r3, #16
 1401              	.LVL138:
